Archive member included because of file (symbol)

c:/program files (x86)/gnu tools arm embedded/4.9 2015q1/bin/../lib/gcc/arm-none-eabi/4.9.3/../../../../arm-none-eabi/lib/armv7e-m\libc.a(lib_a-exit.o)
                              c:/program files (x86)/gnu tools arm embedded/4.9 2015q1/bin/../lib/gcc/arm-none-eabi/4.9.3/../../../../arm-none-eabi/lib/armv7e-m/crt0.o (exit)
c:/program files (x86)/gnu tools arm embedded/4.9 2015q1/bin/../lib/gcc/arm-none-eabi/4.9.3/../../../../arm-none-eabi/lib/armv7e-m\libc.a(lib_a-impure.o)
                              c:/program files (x86)/gnu tools arm embedded/4.9 2015q1/bin/../lib/gcc/arm-none-eabi/4.9.3/../../../../arm-none-eabi/lib/armv7e-m\libc.a(lib_a-exit.o) (_global_impure_ptr)
c:/program files (x86)/gnu tools arm embedded/4.9 2015q1/bin/../lib/gcc/arm-none-eabi/4.9.3/../../../../arm-none-eabi/lib/armv7e-m\libc.a(lib_a-init.o)
                              c:/program files (x86)/gnu tools arm embedded/4.9 2015q1/bin/../lib/gcc/arm-none-eabi/4.9.3/../../../../arm-none-eabi/lib/armv7e-m/crt0.o (__libc_init_array)
c:/program files (x86)/gnu tools arm embedded/4.9 2015q1/bin/../lib/gcc/arm-none-eabi/4.9.3/../../../../arm-none-eabi/lib/armv7e-m\libc.a(lib_a-memset.o)
                              c:/program files (x86)/gnu tools arm embedded/4.9 2015q1/bin/../lib/gcc/arm-none-eabi/4.9.3/../../../../arm-none-eabi/lib/armv7e-m/crt0.o (memset)
c:/program files (x86)/gnu tools arm embedded/4.9 2015q1/bin/../lib/gcc/arm-none-eabi/4.9.3/../../../../arm-none-eabi/lib/armv7e-m\libc.a(lib_a-__call_atexit.o)
                              c:/program files (x86)/gnu tools arm embedded/4.9 2015q1/bin/../lib/gcc/arm-none-eabi/4.9.3/../../../../arm-none-eabi/lib/armv7e-m\libc.a(lib_a-exit.o) (__call_exitprocs)
c:/program files (x86)/gnu tools arm embedded/4.9 2015q1/bin/../lib/gcc/arm-none-eabi/4.9.3/../../../../arm-none-eabi/lib/armv7e-m\libc.a(lib_a-atexit.o)
                              c:/program files (x86)/gnu tools arm embedded/4.9 2015q1/bin/../lib/gcc/arm-none-eabi/4.9.3/../../../../arm-none-eabi/lib/armv7e-m\libc.a(lib_a-__call_atexit.o) (atexit)
c:/program files (x86)/gnu tools arm embedded/4.9 2015q1/bin/../lib/gcc/arm-none-eabi/4.9.3/../../../../arm-none-eabi/lib/armv7e-m\libc.a(lib_a-fini.o)
                              c:/program files (x86)/gnu tools arm embedded/4.9 2015q1/bin/../lib/gcc/arm-none-eabi/4.9.3/../../../../arm-none-eabi/lib/armv7e-m\libc.a(lib_a-__call_atexit.o) (__libc_fini_array)
c:/program files (x86)/gnu tools arm embedded/4.9 2015q1/bin/../lib/gcc/arm-none-eabi/4.9.3/../../../../arm-none-eabi/lib/armv7e-m\libc.a(lib_a-__atexit.o)
                              c:/program files (x86)/gnu tools arm embedded/4.9 2015q1/bin/../lib/gcc/arm-none-eabi/4.9.3/../../../../arm-none-eabi/lib/armv7e-m\libc.a(lib_a-atexit.o) (__register_exitproc)

Allocating common symbols
Common symbol       size              file

pFlash              0x20              ..\obj\stm32f4xx_hal_flash.o
I2cHandle           0x3c              ..\obj\stm32f429i_discovery.o

Discarded input sections

 .text          0x00000000        0x0 c:/program files (x86)/gnu tools arm embedded/4.9 2015q1/bin/../lib/gcc/arm-none-eabi/4.9.3/armv7e-m/crti.o
 .data          0x00000000        0x0 c:/program files (x86)/gnu tools arm embedded/4.9 2015q1/bin/../lib/gcc/arm-none-eabi/4.9.3/armv7e-m/crti.o
 .bss           0x00000000        0x0 c:/program files (x86)/gnu tools arm embedded/4.9 2015q1/bin/../lib/gcc/arm-none-eabi/4.9.3/armv7e-m/crti.o
 .data          0x00000000        0x4 c:/program files (x86)/gnu tools arm embedded/4.9 2015q1/bin/../lib/gcc/arm-none-eabi/4.9.3/armv7e-m/crtbegin.o
 .text          0x00000000       0x74 c:/program files (x86)/gnu tools arm embedded/4.9 2015q1/bin/../lib/gcc/arm-none-eabi/4.9.3/../../../../arm-none-eabi/lib/armv7e-m/crt0.o
 .data          0x00000000        0x0 c:/program files (x86)/gnu tools arm embedded/4.9 2015q1/bin/../lib/gcc/arm-none-eabi/4.9.3/../../../../arm-none-eabi/lib/armv7e-m/crt0.o
 .bss           0x00000000        0x0 c:/program files (x86)/gnu tools arm embedded/4.9 2015q1/bin/../lib/gcc/arm-none-eabi/4.9.3/../../../../arm-none-eabi/lib/armv7e-m/crt0.o
 .ARM.extab     0x00000000        0x0 c:/program files (x86)/gnu tools arm embedded/4.9 2015q1/bin/../lib/gcc/arm-none-eabi/4.9.3/../../../../arm-none-eabi/lib/armv7e-m/crt0.o
 .ARM.exidx     0x00000000        0x8 c:/program files (x86)/gnu tools arm embedded/4.9 2015q1/bin/../lib/gcc/arm-none-eabi/4.9.3/../../../../arm-none-eabi/lib/armv7e-m/crt0.o
 .ARM.attributes
                0x00000000       0x1c c:/program files (x86)/gnu tools arm embedded/4.9 2015q1/bin/../lib/gcc/arm-none-eabi/4.9.3/../../../../arm-none-eabi/lib/armv7e-m/crt0.o
 .text          0x00000000        0x0 c:/program files (x86)/gnu tools arm embedded/4.9 2015q1/bin/../lib/gcc/arm-none-eabi/4.9.3/../../../../arm-none-eabi/lib/armv7e-m\libc.a(lib_a-exit.o)
 .data          0x00000000        0x0 c:/program files (x86)/gnu tools arm embedded/4.9 2015q1/bin/../lib/gcc/arm-none-eabi/4.9.3/../../../../arm-none-eabi/lib/armv7e-m\libc.a(lib_a-exit.o)
 .bss           0x00000000        0x0 c:/program files (x86)/gnu tools arm embedded/4.9 2015q1/bin/../lib/gcc/arm-none-eabi/4.9.3/../../../../arm-none-eabi/lib/armv7e-m\libc.a(lib_a-exit.o)
 .text.exit     0x00000000       0x20 c:/program files (x86)/gnu tools arm embedded/4.9 2015q1/bin/../lib/gcc/arm-none-eabi/4.9.3/../../../../arm-none-eabi/lib/armv7e-m\libc.a(lib_a-exit.o)
 .debug_frame   0x00000000       0x28 c:/program files (x86)/gnu tools arm embedded/4.9 2015q1/bin/../lib/gcc/arm-none-eabi/4.9.3/../../../../arm-none-eabi/lib/armv7e-m\libc.a(lib_a-exit.o)
 .ARM.attributes
                0x00000000       0x2e c:/program files (x86)/gnu tools arm embedded/4.9 2015q1/bin/../lib/gcc/arm-none-eabi/4.9.3/../../../../arm-none-eabi/lib/armv7e-m\libc.a(lib_a-exit.o)
 .text          0x00000000        0x0 c:/program files (x86)/gnu tools arm embedded/4.9 2015q1/bin/../lib/gcc/arm-none-eabi/4.9.3/../../../../arm-none-eabi/lib/armv7e-m\libc.a(lib_a-impure.o)
 .data          0x00000000        0x0 c:/program files (x86)/gnu tools arm embedded/4.9 2015q1/bin/../lib/gcc/arm-none-eabi/4.9.3/../../../../arm-none-eabi/lib/armv7e-m\libc.a(lib_a-impure.o)
 .bss           0x00000000        0x0 c:/program files (x86)/gnu tools arm embedded/4.9 2015q1/bin/../lib/gcc/arm-none-eabi/4.9.3/../../../../arm-none-eabi/lib/armv7e-m\libc.a(lib_a-impure.o)
 .data._impure_ptr
                0x00000000        0x4 c:/program files (x86)/gnu tools arm embedded/4.9 2015q1/bin/../lib/gcc/arm-none-eabi/4.9.3/../../../../arm-none-eabi/lib/armv7e-m\libc.a(lib_a-impure.o)
 .ARM.attributes
                0x00000000       0x2e c:/program files (x86)/gnu tools arm embedded/4.9 2015q1/bin/../lib/gcc/arm-none-eabi/4.9.3/../../../../arm-none-eabi/lib/armv7e-m\libc.a(lib_a-impure.o)
 .text          0x00000000        0x0 c:/program files (x86)/gnu tools arm embedded/4.9 2015q1/bin/../lib/gcc/arm-none-eabi/4.9.3/../../../../arm-none-eabi/lib/armv7e-m\libc.a(lib_a-init.o)
 .data          0x00000000        0x0 c:/program files (x86)/gnu tools arm embedded/4.9 2015q1/bin/../lib/gcc/arm-none-eabi/4.9.3/../../../../arm-none-eabi/lib/armv7e-m\libc.a(lib_a-init.o)
 .bss           0x00000000        0x0 c:/program files (x86)/gnu tools arm embedded/4.9 2015q1/bin/../lib/gcc/arm-none-eabi/4.9.3/../../../../arm-none-eabi/lib/armv7e-m\libc.a(lib_a-init.o)
 .debug_frame   0x00000000       0x2c c:/program files (x86)/gnu tools arm embedded/4.9 2015q1/bin/../lib/gcc/arm-none-eabi/4.9.3/../../../../arm-none-eabi/lib/armv7e-m\libc.a(lib_a-init.o)
 .ARM.attributes
                0x00000000       0x2e c:/program files (x86)/gnu tools arm embedded/4.9 2015q1/bin/../lib/gcc/arm-none-eabi/4.9.3/../../../../arm-none-eabi/lib/armv7e-m\libc.a(lib_a-init.o)
 .text          0x00000000        0x0 c:/program files (x86)/gnu tools arm embedded/4.9 2015q1/bin/../lib/gcc/arm-none-eabi/4.9.3/../../../../arm-none-eabi/lib/armv7e-m\libc.a(lib_a-memset.o)
 .data          0x00000000        0x0 c:/program files (x86)/gnu tools arm embedded/4.9 2015q1/bin/../lib/gcc/arm-none-eabi/4.9.3/../../../../arm-none-eabi/lib/armv7e-m\libc.a(lib_a-memset.o)
 .bss           0x00000000        0x0 c:/program files (x86)/gnu tools arm embedded/4.9 2015q1/bin/../lib/gcc/arm-none-eabi/4.9.3/../../../../arm-none-eabi/lib/armv7e-m\libc.a(lib_a-memset.o)
 .text.memset   0x00000000       0x9c c:/program files (x86)/gnu tools arm embedded/4.9 2015q1/bin/../lib/gcc/arm-none-eabi/4.9.3/../../../../arm-none-eabi/lib/armv7e-m\libc.a(lib_a-memset.o)
 .debug_frame   0x00000000       0x34 c:/program files (x86)/gnu tools arm embedded/4.9 2015q1/bin/../lib/gcc/arm-none-eabi/4.9.3/../../../../arm-none-eabi/lib/armv7e-m\libc.a(lib_a-memset.o)
 .ARM.attributes
                0x00000000       0x2e c:/program files (x86)/gnu tools arm embedded/4.9 2015q1/bin/../lib/gcc/arm-none-eabi/4.9.3/../../../../arm-none-eabi/lib/armv7e-m\libc.a(lib_a-memset.o)
 .text          0x00000000        0x0 c:/program files (x86)/gnu tools arm embedded/4.9 2015q1/bin/../lib/gcc/arm-none-eabi/4.9.3/../../../../arm-none-eabi/lib/armv7e-m\libc.a(lib_a-__call_atexit.o)
 .data          0x00000000        0x0 c:/program files (x86)/gnu tools arm embedded/4.9 2015q1/bin/../lib/gcc/arm-none-eabi/4.9.3/../../../../arm-none-eabi/lib/armv7e-m\libc.a(lib_a-__call_atexit.o)
 .bss           0x00000000        0x0 c:/program files (x86)/gnu tools arm embedded/4.9 2015q1/bin/../lib/gcc/arm-none-eabi/4.9.3/../../../../arm-none-eabi/lib/armv7e-m\libc.a(lib_a-__call_atexit.o)
 .text.__call_exitprocs
                0x00000000       0xd4 c:/program files (x86)/gnu tools arm embedded/4.9 2015q1/bin/../lib/gcc/arm-none-eabi/4.9.3/../../../../arm-none-eabi/lib/armv7e-m\libc.a(lib_a-__call_atexit.o)
 .debug_frame   0x00000000       0x50 c:/program files (x86)/gnu tools arm embedded/4.9 2015q1/bin/../lib/gcc/arm-none-eabi/4.9.3/../../../../arm-none-eabi/lib/armv7e-m\libc.a(lib_a-__call_atexit.o)
 .ARM.attributes
                0x00000000       0x2e c:/program files (x86)/gnu tools arm embedded/4.9 2015q1/bin/../lib/gcc/arm-none-eabi/4.9.3/../../../../arm-none-eabi/lib/armv7e-m\libc.a(lib_a-__call_atexit.o)
 .text          0x00000000        0x0 c:/program files (x86)/gnu tools arm embedded/4.9 2015q1/bin/../lib/gcc/arm-none-eabi/4.9.3/../../../../arm-none-eabi/lib/armv7e-m\libc.a(lib_a-atexit.o)
 .data          0x00000000        0x0 c:/program files (x86)/gnu tools arm embedded/4.9 2015q1/bin/../lib/gcc/arm-none-eabi/4.9.3/../../../../arm-none-eabi/lib/armv7e-m\libc.a(lib_a-atexit.o)
 .bss           0x00000000        0x0 c:/program files (x86)/gnu tools arm embedded/4.9 2015q1/bin/../lib/gcc/arm-none-eabi/4.9.3/../../../../arm-none-eabi/lib/armv7e-m\libc.a(lib_a-atexit.o)
 .debug_frame   0x00000000       0x20 c:/program files (x86)/gnu tools arm embedded/4.9 2015q1/bin/../lib/gcc/arm-none-eabi/4.9.3/../../../../arm-none-eabi/lib/armv7e-m\libc.a(lib_a-atexit.o)
 .ARM.attributes
                0x00000000       0x2e c:/program files (x86)/gnu tools arm embedded/4.9 2015q1/bin/../lib/gcc/arm-none-eabi/4.9.3/../../../../arm-none-eabi/lib/armv7e-m\libc.a(lib_a-atexit.o)
 .text          0x00000000        0x0 c:/program files (x86)/gnu tools arm embedded/4.9 2015q1/bin/../lib/gcc/arm-none-eabi/4.9.3/../../../../arm-none-eabi/lib/armv7e-m\libc.a(lib_a-fini.o)
 .data          0x00000000        0x0 c:/program files (x86)/gnu tools arm embedded/4.9 2015q1/bin/../lib/gcc/arm-none-eabi/4.9.3/../../../../arm-none-eabi/lib/armv7e-m\libc.a(lib_a-fini.o)
 .bss           0x00000000        0x0 c:/program files (x86)/gnu tools arm embedded/4.9 2015q1/bin/../lib/gcc/arm-none-eabi/4.9.3/../../../../arm-none-eabi/lib/armv7e-m\libc.a(lib_a-fini.o)
 .debug_frame   0x00000000       0x34 c:/program files (x86)/gnu tools arm embedded/4.9 2015q1/bin/../lib/gcc/arm-none-eabi/4.9.3/../../../../arm-none-eabi/lib/armv7e-m\libc.a(lib_a-fini.o)
 .ARM.attributes
                0x00000000       0x2e c:/program files (x86)/gnu tools arm embedded/4.9 2015q1/bin/../lib/gcc/arm-none-eabi/4.9.3/../../../../arm-none-eabi/lib/armv7e-m\libc.a(lib_a-fini.o)
 .text          0x00000000        0x0 c:/program files (x86)/gnu tools arm embedded/4.9 2015q1/bin/../lib/gcc/arm-none-eabi/4.9.3/../../../../arm-none-eabi/lib/armv7e-m\libc.a(lib_a-__atexit.o)
 .data          0x00000000        0x0 c:/program files (x86)/gnu tools arm embedded/4.9 2015q1/bin/../lib/gcc/arm-none-eabi/4.9.3/../../../../arm-none-eabi/lib/armv7e-m\libc.a(lib_a-__atexit.o)
 .bss           0x00000000        0x0 c:/program files (x86)/gnu tools arm embedded/4.9 2015q1/bin/../lib/gcc/arm-none-eabi/4.9.3/../../../../arm-none-eabi/lib/armv7e-m\libc.a(lib_a-__atexit.o)
 .debug_frame   0x00000000       0x34 c:/program files (x86)/gnu tools arm embedded/4.9 2015q1/bin/../lib/gcc/arm-none-eabi/4.9.3/../../../../arm-none-eabi/lib/armv7e-m\libc.a(lib_a-__atexit.o)
 .ARM.attributes
                0x00000000       0x2e c:/program files (x86)/gnu tools arm embedded/4.9 2015q1/bin/../lib/gcc/arm-none-eabi/4.9.3/../../../../arm-none-eabi/lib/armv7e-m\libc.a(lib_a-__atexit.o)
 .text          0x00000000      0xb08 ..\obj\stm32f429i_discovery.o
 .data          0x00000000       0x14 ..\obj\stm32f429i_discovery.o
 .bss           0x00000000       0x5c ..\obj\stm32f429i_discovery.o
 .rodata        0x00000000        0xc ..\obj\stm32f429i_discovery.o
 .debug_info    0x00000000     0x16a6 ..\obj\stm32f429i_discovery.o
 .debug_abbrev  0x00000000      0x24a ..\obj\stm32f429i_discovery.o
 .debug_aranges
                0x00000000       0x20 ..\obj\stm32f429i_discovery.o
 .debug_line    0x00000000      0x381 ..\obj\stm32f429i_discovery.o
 .debug_str     0x00000000     0x1275 ..\obj\stm32f429i_discovery.o
 .comment       0x00000000       0x71 ..\obj\stm32f429i_discovery.o
 .debug_frame   0x00000000      0x4fc ..\obj\stm32f429i_discovery.o
 .ARM.attributes
                0x00000000       0x33 ..\obj\stm32f429i_discovery.o
 COMMON         0x00000000       0x3c ..\obj\stm32f429i_discovery.o
 .text          0x00000000       0xb8 ..\obj\SystemConfigure.o
 .data          0x00000000        0x0 ..\obj\SystemConfigure.o
 .bss           0x00000000        0x0 ..\obj\SystemConfigure.o
 .debug_info    0x00000000      0x448 ..\obj\SystemConfigure.o
 .debug_abbrev  0x00000000      0x12d ..\obj\SystemConfigure.o
 .debug_aranges
                0x00000000       0x20 ..\obj\SystemConfigure.o
 .debug_line    0x00000000      0x198 ..\obj\SystemConfigure.o
 .debug_str     0x00000000      0x412 ..\obj\SystemConfigure.o
 .comment       0x00000000       0x71 ..\obj\SystemConfigure.o
 .debug_frame   0x00000000       0x50 ..\obj\SystemConfigure.o
 .ARM.attributes
                0x00000000       0x33 ..\obj\SystemConfigure.o
 .data          0x00000000        0x0 ..\obj\Bit_Operations.o
 .bss           0x00000000        0x0 ..\obj\Bit_Operations.o
 .text          0x00000000      0x9a4 ..\obj\stm32f4xx_hal_flash_ex.o
 .data          0x00000000        0x0 ..\obj\stm32f4xx_hal_flash_ex.o
 .bss           0x00000000        0x0 ..\obj\stm32f4xx_hal_flash_ex.o
 .debug_info    0x00000000      0x90a ..\obj\stm32f4xx_hal_flash_ex.o
 .debug_abbrev  0x00000000      0x286 ..\obj\stm32f4xx_hal_flash_ex.o
 .debug_aranges
                0x00000000       0x20 ..\obj\stm32f4xx_hal_flash_ex.o
 .debug_line    0x00000000      0x3f9 ..\obj\stm32f4xx_hal_flash_ex.o
 .debug_str     0x00000000      0x6bb ..\obj\stm32f4xx_hal_flash_ex.o
 .comment       0x00000000       0x71 ..\obj\stm32f4xx_hal_flash_ex.o
 .debug_frame   0x00000000      0x358 ..\obj\stm32f4xx_hal_flash_ex.o
 .ARM.attributes
                0x00000000       0x33 ..\obj\stm32f4xx_hal_flash_ex.o
 .text          0x00000000      0x444 ..\obj\CoreDebug.o
 .data          0x00000000        0x0 ..\obj\CoreDebug.o
 .bss           0x00000000        0x0 ..\obj\CoreDebug.o
 .debug_info    0x00000000      0x3bd ..\obj\CoreDebug.o
 .debug_abbrev  0x00000000      0x116 ..\obj\CoreDebug.o
 .debug_aranges
                0x00000000       0x20 ..\obj\CoreDebug.o
 .debug_line    0x00000000      0x152 ..\obj\CoreDebug.o
 .debug_str     0x00000000      0x370 ..\obj\CoreDebug.o
 .comment       0x00000000       0x71 ..\obj\CoreDebug.o
 .debug_frame   0x00000000      0x168 ..\obj\CoreDebug.o
 .ARM.attributes
                0x00000000       0x33 ..\obj\CoreDebug.o
 .text          0x00000000      0x4ec ..\obj\stm32f4xx_hal_pwr_ex.o
 .data          0x00000000        0x0 ..\obj\stm32f4xx_hal_pwr_ex.o
 .bss           0x00000000        0x0 ..\obj\stm32f4xx_hal_pwr_ex.o
 .debug_info    0x00000000      0x9d2 ..\obj\stm32f4xx_hal_pwr_ex.o
 .debug_abbrev  0x00000000      0x209 ..\obj\stm32f4xx_hal_pwr_ex.o
 .debug_aranges
                0x00000000       0x20 ..\obj\stm32f4xx_hal_pwr_ex.o
 .debug_line    0x00000000      0x31f ..\obj\stm32f4xx_hal_pwr_ex.o
 .debug_str     0x00000000      0x4f5 ..\obj\stm32f4xx_hal_pwr_ex.o
 .comment       0x00000000       0x71 ..\obj\stm32f4xx_hal_pwr_ex.o
 .debug_frame   0x00000000      0x158 ..\obj\stm32f4xx_hal_pwr_ex.o
 .ARM.attributes
                0x00000000       0x33 ..\obj\stm32f4xx_hal_pwr_ex.o
 .data          0x00000000        0x0 ..\obj\Reset.o
 .bss           0x00000000        0x0 ..\obj\Reset.o
 .text          0x00000000     0x1f20 ..\obj\stm32f4xx_hal_spi.o
 .data          0x00000000        0x0 ..\obj\stm32f4xx_hal_spi.o
 .bss           0x00000000        0x0 ..\obj\stm32f4xx_hal_spi.o
 .debug_info    0x00000000      0xf4b ..\obj\stm32f4xx_hal_spi.o
 .debug_abbrev  0x00000000      0x20a ..\obj\stm32f4xx_hal_spi.o
 .debug_aranges
                0x00000000       0x20 ..\obj\stm32f4xx_hal_spi.o
 .debug_line    0x00000000      0x7db ..\obj\stm32f4xx_hal_spi.o
 .debug_str     0x00000000      0xa16 ..\obj\stm32f4xx_hal_spi.o
 .comment       0x00000000       0x71 ..\obj\stm32f4xx_hal_spi.o
 .debug_frame   0x00000000      0x604 ..\obj\stm32f4xx_hal_spi.o
 .ARM.attributes
                0x00000000       0x33 ..\obj\stm32f4xx_hal_spi.o
 .data          0x00000000        0x0 ..\obj\stm32f4xx_hal_gpio.o
 .bss           0x00000000        0x0 ..\obj\stm32f4xx_hal_gpio.o
 .data          0x00000000        0x0 ..\obj\Clock.o
 .bss           0x00000000        0x0 ..\obj\Clock.o
 .text          0x00000000        0x0 ..\obj\stm32f4xx_hal_flash_ramfunc.o
 .data          0x00000000        0x0 ..\obj\stm32f4xx_hal_flash_ramfunc.o
 .bss           0x00000000        0x0 ..\obj\stm32f4xx_hal_flash_ramfunc.o
 .debug_info    0x00000000       0x8e ..\obj\stm32f4xx_hal_flash_ramfunc.o
 .debug_abbrev  0x00000000       0x4b ..\obj\stm32f4xx_hal_flash_ramfunc.o
 .debug_aranges
                0x00000000       0x18 ..\obj\stm32f4xx_hal_flash_ramfunc.o
 .debug_line    0x00000000       0xaa ..\obj\stm32f4xx_hal_flash_ramfunc.o
 .debug_str     0x00000000      0x1cc ..\obj\stm32f4xx_hal_flash_ramfunc.o
 .comment       0x00000000       0x71 ..\obj\stm32f4xx_hal_flash_ramfunc.o
 .ARM.attributes
                0x00000000       0x33 ..\obj\stm32f4xx_hal_flash_ramfunc.o
 .data          0x00000000        0x0 ..\obj\stm32f4xx_hal_rcc.o
 .bss           0x00000000        0x0 ..\obj\stm32f4xx_hal_rcc.o
 .data          0x00000000        0x0 ..\obj\swdProtocol.o
 .bss           0x00000000        0x0 ..\obj\swdProtocol.o
 .data          0x00000000        0x0 ..\obj\configurePort.o
 .bss           0x00000000        0x0 ..\obj\configurePort.o
 .data          0x00000000        0x0 ..\obj\swd_Utilities.o
 .bss           0x00000000        0x0 ..\obj\swd_Utilities.o
 .data          0x00000000        0x0 ..\obj\IO_Operations.o
 .bss           0x00000000        0x0 ..\obj\IO_Operations.o
 .data          0x00000000        0x0 ..\obj\Register_ReadWrite.o
 .bss           0x00000000        0x0 ..\obj\Register_ReadWrite.o
 .text          0x00000000        0x0 ..\obj\targetMain.o
 .data          0x00000000        0x0 ..\obj\targetMain.o
 .bss           0x00000000        0x0 ..\obj\targetMain.o
 .debug_line    0x00000000        0x0 ..\obj\targetMain.o
 .debug_str     0x00000000       0xab ..\obj\targetMain.o
 .comment       0x00000000       0x71 ..\obj\targetMain.o
 .ARM.attributes
                0x00000000       0x33 ..\obj\targetMain.o
 .data          0x00000000        0x0 ..\obj\main.o
 .bss           0x00000000        0x0 ..\obj\main.o
 .text          0x00000000      0x384 ..\obj\stm32f4xx_hal_pwr.o
 .data          0x00000000        0x0 ..\obj\stm32f4xx_hal_pwr.o
 .bss           0x00000000        0x0 ..\obj\stm32f4xx_hal_pwr.o
 .debug_info    0x00000000      0x910 ..\obj\stm32f4xx_hal_pwr.o
 .debug_abbrev  0x00000000      0x215 ..\obj\stm32f4xx_hal_pwr.o
 .debug_aranges
                0x00000000       0x20 ..\obj\stm32f4xx_hal_pwr.o
 .debug_line    0x00000000      0x2d3 ..\obj\stm32f4xx_hal_pwr.o
 .debug_str     0x00000000      0x573 ..\obj\stm32f4xx_hal_pwr.o
 .comment       0x00000000       0x71 ..\obj\stm32f4xx_hal_pwr.o
 .debug_frame   0x00000000      0x274 ..\obj\stm32f4xx_hal_pwr.o
 .ARM.attributes
                0x00000000       0x33 ..\obj\stm32f4xx_hal_pwr.o
 .data          0x00000000        0x0 ..\obj\stm32f4xx_hal_cortex.o
 .bss           0x00000000        0x0 ..\obj\stm32f4xx_hal_cortex.o
 .bss           0x00000000        0x0 ..\obj\system_stm32f4xx.o
 .text          0x00000000       0x14 ..\obj\startup_stm32f429xx.o
 .data          0x00000000        0x0 ..\obj\startup_stm32f429xx.o
 .bss           0x00000000        0x0 ..\obj\startup_stm32f429xx.o
 .text          0x00000000     0x7cd8 ..\obj\stm32f4xx_hal_dma.o
 .data          0x00000000        0x0 ..\obj\stm32f4xx_hal_dma.o
 .bss           0x00000000        0x0 ..\obj\stm32f4xx_hal_dma.o
 .debug_info    0x00000000      0x625 ..\obj\stm32f4xx_hal_dma.o
 .debug_abbrev  0x00000000      0x1c2 ..\obj\stm32f4xx_hal_dma.o
 .debug_aranges
                0x00000000       0x20 ..\obj\stm32f4xx_hal_dma.o
 .debug_line    0x00000000     0x4414 ..\obj\stm32f4xx_hal_dma.o
 .debug_str     0x00000000      0x5df ..\obj\stm32f4xx_hal_dma.o
 .comment       0x00000000       0x71 ..\obj\stm32f4xx_hal_dma.o
 .debug_frame   0x00000000      0x194 ..\obj\stm32f4xx_hal_dma.o
 .ARM.attributes
                0x00000000       0x33 ..\obj\stm32f4xx_hal_dma.o
 .data          0x00000000        0x0 ..\obj\stm32f4xx_hal.o
 .data          0x00000000        0x0 ..\obj\Delay.o
 .bss           0x00000000        0x0 ..\obj\Delay.o
 .data          0x00000000        0x0 ..\obj\stm32f4xx_it.o
 .bss           0x00000000        0x0 ..\obj\stm32f4xx_it.o
 .text          0x00000000      0x540 ..\obj\Flash.o
 .data          0x00000000        0x0 ..\obj\Flash.o
 .bss           0x00000000       0x18 ..\obj\Flash.o
 .debug_info    0x00000000      0x4f5 ..\obj\Flash.o
 .debug_abbrev  0x00000000      0x19a ..\obj\Flash.o
 .debug_aranges
                0x00000000       0x20 ..\obj\Flash.o
 .debug_line    0x00000000      0x2f7 ..\obj\Flash.o
 .debug_str     0x00000000      0x414 ..\obj\Flash.o
 .comment       0x00000000       0x71 ..\obj\Flash.o
 .debug_frame   0x00000000      0x15c ..\obj\Flash.o
 .ARM.attributes
                0x00000000       0x33 ..\obj\Flash.o
 .text          0x00000000      0x5ec ..\obj\stm32f4xx_hal_flash.o
 .data          0x00000000        0x0 ..\obj\stm32f4xx_hal_flash.o
 .bss           0x00000000        0x0 ..\obj\stm32f4xx_hal_flash.o
 .debug_info    0x00000000      0x50b ..\obj\stm32f4xx_hal_flash.o
 .debug_abbrev  0x00000000      0x1dd ..\obj\stm32f4xx_hal_flash.o
 .debug_aranges
                0x00000000       0x20 ..\obj\stm32f4xx_hal_flash.o
 .debug_line    0x00000000      0x2be ..\obj\stm32f4xx_hal_flash.o
 .debug_str     0x00000000      0x4f4 ..\obj\stm32f4xx_hal_flash.o
 .comment       0x00000000       0x71 ..\obj\stm32f4xx_hal_flash.o
 .debug_frame   0x00000000      0x26c ..\obj\stm32f4xx_hal_flash.o
 .ARM.attributes
                0x00000000       0x33 ..\obj\stm32f4xx_hal_flash.o
 COMMON         0x00000000       0x20 ..\obj\stm32f4xx_hal_flash.o
 .text          0x00000000     0x31f0 ..\obj\stm32f4xx_hal_i2c.o
 .data          0x00000000        0x0 ..\obj\stm32f4xx_hal_i2c.o
 .bss           0x00000000        0x0 ..\obj\stm32f4xx_hal_i2c.o
 .debug_info    0x00000000     0x183c ..\obj\stm32f4xx_hal_i2c.o
 .debug_abbrev  0x00000000      0x1ea ..\obj\stm32f4xx_hal_i2c.o
 .debug_aranges
                0x00000000       0x20 ..\obj\stm32f4xx_hal_i2c.o
 .debug_line    0x00000000      0xb7c ..\obj\stm32f4xx_hal_i2c.o
 .debug_str     0x00000000      0xc14 ..\obj\stm32f4xx_hal_i2c.o
 .comment       0x00000000       0x71 ..\obj\stm32f4xx_hal_i2c.o
 .debug_frame   0x00000000      0x8b4 ..\obj\stm32f4xx_hal_i2c.o
 .ARM.attributes
                0x00000000       0x33 ..\obj\stm32f4xx_hal_i2c.o
 .text          0x00000000        0x0 c:/program files (x86)/gnu tools arm embedded/4.9 2015q1/bin/../lib/gcc/arm-none-eabi/4.9.3/armv7e-m/crtend.o
 .data          0x00000000        0x0 c:/program files (x86)/gnu tools arm embedded/4.9 2015q1/bin/../lib/gcc/arm-none-eabi/4.9.3/armv7e-m/crtend.o
 .bss           0x00000000        0x0 c:/program files (x86)/gnu tools arm embedded/4.9 2015q1/bin/../lib/gcc/arm-none-eabi/4.9.3/armv7e-m/crtend.o
 .eh_frame      0x00000000        0x4 c:/program files (x86)/gnu tools arm embedded/4.9 2015q1/bin/../lib/gcc/arm-none-eabi/4.9.3/armv7e-m/crtend.o
 .jcr           0x00000000        0x4 c:/program files (x86)/gnu tools arm embedded/4.9 2015q1/bin/../lib/gcc/arm-none-eabi/4.9.3/armv7e-m/crtend.o
 .ARM.attributes
                0x00000000       0x2e c:/program files (x86)/gnu tools arm embedded/4.9 2015q1/bin/../lib/gcc/arm-none-eabi/4.9.3/armv7e-m/crtend.o
 .text          0x00000000        0x0 c:/program files (x86)/gnu tools arm embedded/4.9 2015q1/bin/../lib/gcc/arm-none-eabi/4.9.3/armv7e-m/crtn.o
 .data          0x00000000        0x0 c:/program files (x86)/gnu tools arm embedded/4.9 2015q1/bin/../lib/gcc/arm-none-eabi/4.9.3/armv7e-m/crtn.o
 .bss           0x00000000        0x0 c:/program files (x86)/gnu tools arm embedded/4.9 2015q1/bin/../lib/gcc/arm-none-eabi/4.9.3/armv7e-m/crtn.o

Memory Configuration

Name             Origin             Length             Attributes
FLASH            0x08000000         0x00200000         xr
RAM              0x20000000         0x00030000         xrw
CCMRAM           0x10000000         0x00010000         rw
*default*        0x00000000         0xffffffff

Linker script and memory map

LOAD c:/program files (x86)/gnu tools arm embedded/4.9 2015q1/bin/../lib/gcc/arm-none-eabi/4.9.3/armv7e-m/crti.o
LOAD c:/program files (x86)/gnu tools arm embedded/4.9 2015q1/bin/../lib/gcc/arm-none-eabi/4.9.3/armv7e-m/crtbegin.o
LOAD c:/program files (x86)/gnu tools arm embedded/4.9 2015q1/bin/../lib/gcc/arm-none-eabi/4.9.3/../../../../arm-none-eabi/lib/armv7e-m/crt0.o
                0x2002ffff                _estack = 0x2002ffff
                0x00000200                _Min_Heap_Size = 0x200
                0x00000400                _Min_Stack_Size = 0x400

.isr_vector     0x08000000      0x1ac
                0x08000000                . = ALIGN (0x4)
 *(.isr_vector)
 .isr_vector    0x08000000      0x1ac ..\obj\startup_stm32f429xx.o
                0x08000000                g_pfnVectors
                0x080001ac                . = ALIGN (0x4)

.text           0x080001ac     0x2bfc
                0x080001ac                . = ALIGN (0x4)
 *(.text)
 .text          0x080001ac       0x5c c:/program files (x86)/gnu tools arm embedded/4.9 2015q1/bin/../lib/gcc/arm-none-eabi/4.9.3/armv7e-m/crtbegin.o
 .text          0x08000208      0x190 ..\obj\Bit_Operations.o
                0x08000208                sendBit
                0x08000254                sendBits
                0x080002a4                readBit
                0x080002dc                readBits
                0x08000320                send8bit
                0x08000338                send16bit
                0x08000350                send32bit
                0x08000368                read3bit
                0x08000380                read32bit
 .text          0x08000398       0x80 ..\obj\Reset.o
                0x08000398                lineReset
                0x080003dc                resetTarget
 .text          0x08000418      0x674 ..\obj\stm32f4xx_hal_gpio.o
                0x08000418                HAL_GPIO_Init
                0x08000760                HAL_GPIO_DeInit
                0x08000974                HAL_GPIO_ReadPin
                0x080009a4                HAL_GPIO_WritePin
                0x080009d4                HAL_GPIO_TogglePin
                0x080009f8                HAL_GPIO_LockPin
                0x08000a48                HAL_GPIO_EXTI_IRQHandler
                0x08000a78                HAL_GPIO_EXTI_Callback
 .text          0x08000a8c       0xa4 ..\obj\Clock.o
                0x08000a8c                clockGenerator_1cycle
                0x08000ab0                extraIdleClock
                0x08000ae8                turnAround_ToRead
                0x08000b00                turnAround_ToWrite
 .text          0x08000b30      0xd74 ..\obj\stm32f4xx_hal_rcc.o
                0x08000b30                HAL_RCC_DeInit
                0x08000ba8                HAL_RCC_OscConfig
                0x08001060                HAL_RCC_ClockConfig
                0x0800137c                HAL_RCC_MCOConfig
                0x08001440                HAL_RCC_EnableCSS
                0x08001458                HAL_RCC_DisableCSS
                0x08001470                HAL_RCC_GetSysClockFreq
                0x08001588                HAL_RCC_GetHCLKFreq
                0x080015e0                HAL_RCC_GetPCLK1Freq
                0x0800162c                HAL_RCC_GetPCLK2Freq
                0x08001678                HAL_RCC_GetOscConfig
                0x08001814                HAL_RCC_GetClockConfig
                0x08001874                HAL_RCC_NMI_IRQHandler
                0x08001898                HAL_RCC_CSSCallback
 .text          0x080018a4       0x54 ..\obj\swdProtocol.o
                0x080018a4                SWD_Initialisation
                0x080018d8                switchJTAGtoSWD
 .text          0x080018f8      0x158 ..\obj\configurePort.o
                0x080018f8                configureClock
                0x08001924                configureTargetResetPin
                0x08001950                SWDIO_OutputMode
                0x0800197c                SWDIO_InputMode
                0x080019a8                configure_IOPorts
                0x08001a24                configureLED
 .text          0x08001a50      0x3dc ..\obj\swd_Utilities.o
                0x08001a50                calculateParity_SWDRequest
                0x08001a90                calculateParity_32bitData
                0x08001ae0                getSWD_AddressBit
                0x08001b10                getSWD_Request
                0x08001b9c                swdCheckErrorFlag
                0x08001c10                swdClearErrorFlagInAbort
                0x08001c64                swdReadWriteDpWithRetries
                0x08001cc4                swdReadWriteApWithRetries
                0x08001d20                retriesSwdOperation
                0x08001d7c                swdClearFlags
 .text          0x08001e2c       0x24 ..\obj\IO_Operations.o
                0x08001e2c                readSWDIO_Pin
 .text          0x08001e50      0x238 ..\obj\Register_ReadWrite.o
                0x08001e50                SWDRegister_Write
                0x08001eb0                SWDRegister_Read
                0x08001f08                memoryAccessRead
                0x08001f48                memoryAccessWrite
                0x08001f84                swdReadAP
                0x08001fc4                powerUpSystemAndDebug
                0x08001fe8                readAhbIDR
                0x08002054                swdSetMemorySize
 .text          0x08002088       0xb4 ..\obj\main.o
                0x08002088                main
 .text          0x0800213c      0x544 ..\obj\stm32f4xx_hal_cortex.o
                0x080024d0                HAL_NVIC_SetPriorityGrouping
                0x080024e4                HAL_NVIC_SetPriority
                0x0800251c                HAL_NVIC_EnableIRQ
                0x08002538                HAL_NVIC_DisableIRQ
                0x08002554                HAL_NVIC_SystemReset
                0x08002560                HAL_SYSTICK_Config
                0x08002578                HAL_NVIC_GetPriorityGrouping
                0x08002588                HAL_NVIC_GetPriority
                0x080025b8                HAL_NVIC_SetPendingIRQ
                0x080025d4                HAL_NVIC_GetPendingIRQ
                0x080025f4                HAL_NVIC_ClearPendingIRQ
                0x08002610                HAL_NVIC_GetActive
                0x08002630                HAL_SYSTICK_CLKSourceConfig
                0x08002668                HAL_SYSTICK_IRQHandler
                0x08002674                HAL_SYSTICK_Callback
 .text          0x08002680      0x154 ..\obj\system_stm32f4xx.o
                0x08002680                SystemInit
                0x080026dc                SystemCoreClockUpdate
 .text          0x080027d4      0x374 ..\obj\stm32f4xx_hal.o
                0x080027d4                HAL_Init
                0x08002818                HAL_DeInit
                0x08002870                HAL_MspInit
                0x0800287c                HAL_MspDeInit
                0x08002888                HAL_InitTick
                0x080028c0                HAL_IncTick
                0x080028dc                HAL_GetTick
                0x080028f4                HAL_Delay
                0x08002920                HAL_SuspendTick
                0x0800293c                HAL_ResumeTick
                0x08002958                HAL_GetHalVersion
                0x0800296c                HAL_GetREVID
                0x08002984                HAL_GetDEVID
                0x080029a0                HAL_DBGMCU_EnableDBGSleepMode
                0x080029bc                HAL_DBGMCU_DisableDBGSleepMode
                0x080029d8                HAL_DBGMCU_EnableDBGStopMode
                0x080029f4                HAL_DBGMCU_DisableDBGStopMode
                0x08002a10                HAL_DBGMCU_EnableDBGStandbyMode
                0x08002a2c                HAL_DBGMCU_DisableDBGStandbyMode
                0x08002a48                HAL_EnableCompensationCell
                0x08002a88                HAL_DisableCompensationCell
                0x08002ac8                HAL_EnableMemorySwappingBank
                0x08002b08                HAL_DisableMemorySwappingBank
 .text          0x08002b48       0x58 ..\obj\Delay.o
                0x08002b48                delay
 .text          0x08002ba0       0x5c ..\obj\stm32f4xx_it.o
                0x08002ba0                NMI_Handler
                0x08002bac                HardFault_Handler
                0x08002bb4                MemManage_Handler
                0x08002bbc                BusFault_Handler
                0x08002bc4                UsageFault_Handler
                0x08002bcc                SVC_Handler
                0x08002bd8                DebugMon_Handler
                0x08002be4                PendSV_Handler
                0x08002bf0                SysTick_Handler
 *(.text*)
 .text.__libc_init_array
                0x08002bfc       0x50 c:/program files (x86)/gnu tools arm embedded/4.9 2015q1/bin/../lib/gcc/arm-none-eabi/4.9.3/../../../../arm-none-eabi/lib/armv7e-m\libc.a(lib_a-init.o)
                0x08002bfc                __libc_init_array
 .text.startup.register_fini
                0x08002c4c       0x14 c:/program files (x86)/gnu tools arm embedded/4.9 2015q1/bin/../lib/gcc/arm-none-eabi/4.9.3/../../../../arm-none-eabi/lib/armv7e-m\libc.a(lib_a-__call_atexit.o)
 .text.atexit   0x08002c60        0xc c:/program files (x86)/gnu tools arm embedded/4.9 2015q1/bin/../lib/gcc/arm-none-eabi/4.9.3/../../../../arm-none-eabi/lib/armv7e-m\libc.a(lib_a-atexit.o)
                0x08002c60                atexit
 .text.__libc_fini_array
                0x08002c6c       0x2c c:/program files (x86)/gnu tools arm embedded/4.9 2015q1/bin/../lib/gcc/arm-none-eabi/4.9.3/../../../../arm-none-eabi/lib/armv7e-m\libc.a(lib_a-fini.o)
                0x08002c6c                __libc_fini_array
 .text.__register_exitproc
                0x08002c98       0xa4 c:/program files (x86)/gnu tools arm embedded/4.9 2015q1/bin/../lib/gcc/arm-none-eabi/4.9.3/../../../../arm-none-eabi/lib/armv7e-m\libc.a(lib_a-__atexit.o)
                0x08002c98                __register_exitproc
 .text.Reset_Handler
                0x08002d3c       0x50 ..\obj\startup_stm32f429xx.o
                0x08002d3c                Reset_Handler
 .text.Default_Handler
                0x08002d8c        0x2 ..\obj\startup_stm32f429xx.o
                0x08002d8c                RTC_Alarm_IRQHandler
                0x08002d8c                HASH_RNG_IRQHandler
                0x08002d8c                EXTI2_IRQHandler
                0x08002d8c                TIM8_CC_IRQHandler
                0x08002d8c                UART8_IRQHandler
                0x08002d8c                SPI4_IRQHandler
                0x08002d8c                TIM1_CC_IRQHandler
                0x08002d8c                DMA2_Stream5_IRQHandler
                0x08002d8c                DMA1_Stream5_IRQHandler
                0x08002d8c                PVD_IRQHandler
                0x08002d8c                SDIO_IRQHandler
                0x08002d8c                TAMP_STAMP_IRQHandler
                0x08002d8c                CAN2_RX1_IRQHandler
                0x08002d8c                EXTI3_IRQHandler
                0x08002d8c                TIM8_TRG_COM_TIM14_IRQHandler
                0x08002d8c                TIM1_UP_TIM10_IRQHandler
                0x08002d8c                TIM8_UP_TIM13_IRQHandler
                0x08002d8c                I2C3_ER_IRQHandler
                0x08002d8c                EXTI0_IRQHandler
                0x08002d8c                I2C2_EV_IRQHandler
                0x08002d8c                DMA1_Stream2_IRQHandler
                0x08002d8c                CAN1_RX0_IRQHandler
                0x08002d8c                FPU_IRQHandler
                0x08002d8c                OTG_HS_WKUP_IRQHandler
                0x08002d8c                LTDC_ER_IRQHandler
                0x08002d8c                CAN2_SCE_IRQHandler
                0x08002d8c                DMA2_Stream2_IRQHandler
                0x08002d8c                SPI1_IRQHandler
                0x08002d8c                TIM6_DAC_IRQHandler
                0x08002d8c                TIM1_BRK_TIM9_IRQHandler
                0x08002d8c                DCMI_IRQHandler
                0x08002d8c                CAN2_RX0_IRQHandler
                0x08002d8c                DMA2_Stream3_IRQHandler
                0x08002d8c                USART6_IRQHandler
                0x08002d8c                USART3_IRQHandler
                0x08002d8c                CAN1_RX1_IRQHandler
                0x08002d8c                UART5_IRQHandler
                0x08002d8c                DMA2_Stream0_IRQHandler
                0x08002d8c                TIM4_IRQHandler
                0x08002d8c                I2C1_EV_IRQHandler
                0x08002d8c                DMA1_Stream6_IRQHandler
                0x08002d8c                DMA1_Stream1_IRQHandler
                0x08002d8c                UART4_IRQHandler
                0x08002d8c                TIM3_IRQHandler
                0x08002d8c                RCC_IRQHandler
                0x08002d8c                TIM8_BRK_TIM12_IRQHandler
                0x08002d8c                Default_Handler
                0x08002d8c                EXTI15_10_IRQHandler
                0x08002d8c                ADC_IRQHandler
                0x08002d8c                DMA1_Stream7_IRQHandler
                0x08002d8c                SPI5_IRQHandler
                0x08002d8c                TIM7_IRQHandler
                0x08002d8c                CAN2_TX_IRQHandler
                0x08002d8c                TIM5_IRQHandler
                0x08002d8c                DMA2_Stream7_IRQHandler
                0x08002d8c                I2C3_EV_IRQHandler
                0x08002d8c                EXTI9_5_IRQHandler
                0x08002d8c                RTC_WKUP_IRQHandler
                0x08002d8c                LTDC_IRQHandler
                0x08002d8c                ETH_WKUP_IRQHandler
                0x08002d8c                SPI2_IRQHandler
                0x08002d8c                OTG_HS_EP1_IN_IRQHandler
                0x08002d8c                DMA1_Stream0_IRQHandler
                0x08002d8c                CAN1_TX_IRQHandler
                0x08002d8c                EXTI4_IRQHandler
                0x08002d8c                ETH_IRQHandler
                0x08002d8c                OTG_HS_EP1_OUT_IRQHandler
                0x08002d8c                WWDG_IRQHandler
                0x08002d8c                SPI6_IRQHandler
                0x08002d8c                TIM2_IRQHandler
                0x08002d8c                OTG_FS_WKUP_IRQHandler
                0x08002d8c                TIM1_TRG_COM_TIM11_IRQHandler
                0x08002d8c                OTG_HS_IRQHandler
                0x08002d8c                DMA2D_IRQHandler
                0x08002d8c                EXTI1_IRQHandler
                0x08002d8c                UART7_IRQHandler
                0x08002d8c                USART2_IRQHandler
                0x08002d8c                I2C2_ER_IRQHandler
                0x08002d8c                DMA2_Stream1_IRQHandler
                0x08002d8c                CAN1_SCE_IRQHandler
                0x08002d8c                FLASH_IRQHandler
                0x08002d8c                DMA2_Stream4_IRQHandler
                0x08002d8c                USART1_IRQHandler
                0x08002d8c                OTG_FS_IRQHandler
                0x08002d8c                SPI3_IRQHandler
                0x08002d8c                DMA1_Stream4_IRQHandler
                0x08002d8c                I2C1_ER_IRQHandler
                0x08002d8c                FMC_IRQHandler
                0x08002d8c                DMA2_Stream6_IRQHandler
                0x08002d8c                SAI1_IRQHandler
                0x08002d8c                DMA1_Stream3_IRQHandler
 *(.glue_7)
 .glue_7        0x00000000        0x0 linker stubs
 *(.glue_7t)
 .glue_7t       0x00000000        0x0 linker stubs
 *(.eh_frame)
 *fill*         0x08002d8e        0x2 
 .eh_frame      0x08002d90        0x0 c:/program files (x86)/gnu tools arm embedded/4.9 2015q1/bin/../lib/gcc/arm-none-eabi/4.9.3/armv7e-m/crtbegin.o
 *(.init)
 .init          0x08002d90        0x4 c:/program files (x86)/gnu tools arm embedded/4.9 2015q1/bin/../lib/gcc/arm-none-eabi/4.9.3/armv7e-m/crti.o
                0x08002d90                _init
 .init          0x08002d94        0x8 c:/program files (x86)/gnu tools arm embedded/4.9 2015q1/bin/../lib/gcc/arm-none-eabi/4.9.3/armv7e-m/crtn.o
 *(.fini)
 .fini          0x08002d9c        0x4 c:/program files (x86)/gnu tools arm embedded/4.9 2015q1/bin/../lib/gcc/arm-none-eabi/4.9.3/armv7e-m/crti.o
                0x08002d9c                _fini
 .fini          0x08002da0        0x8 c:/program files (x86)/gnu tools arm embedded/4.9 2015q1/bin/../lib/gcc/arm-none-eabi/4.9.3/armv7e-m/crtn.o
                0x08002da8                . = ALIGN (0x4)
                0x08002da8                _etext = .

.vfp11_veneer   0x08002da8        0x0
 .vfp11_veneer  0x00000000        0x0 linker stubs

.v4_bx          0x08002da8        0x0
 .v4_bx         0x00000000        0x0 linker stubs

.iplt           0x08002da8        0x0
 .iplt          0x00000000        0x0 c:/program files (x86)/gnu tools arm embedded/4.9 2015q1/bin/../lib/gcc/arm-none-eabi/4.9.3/armv7e-m/crtbegin.o

.rodata         0x08002da8       0x18
                0x08002da8                . = ALIGN (0x4)
 *(.rodata)
 .rodata        0x08002da8       0x10 ..\obj\stm32f4xx_hal_rcc.o
                0x08002da8                APBAHBPrescTable
 *(.rodata*)
 .rodata.str1.4
                0x08002db8        0x4 c:/program files (x86)/gnu tools arm embedded/4.9 2015q1/bin/../lib/gcc/arm-none-eabi/4.9.3/../../../../arm-none-eabi/lib/armv7e-m\libc.a(lib_a-impure.o)
 .rodata._global_impure_ptr
                0x08002dbc        0x4 c:/program files (x86)/gnu tools arm embedded/4.9 2015q1/bin/../lib/gcc/arm-none-eabi/4.9.3/../../../../arm-none-eabi/lib/armv7e-m\libc.a(lib_a-impure.o)
                0x08002dbc                _global_impure_ptr
                0x08002dc0                . = ALIGN (0x4)

.rel.dyn        0x08002dc0        0x0
 .rel.iplt      0x00000000        0x0 c:/program files (x86)/gnu tools arm embedded/4.9 2015q1/bin/../lib/gcc/arm-none-eabi/4.9.3/armv7e-m/crtbegin.o

.ARM.extab
 *(.ARM.extab* .gnu.linkonce.armextab.*)

.ARM            0x08002dc0        0x0
                0x08002dc0                __exidx_start = .
 *(.ARM.exidx*)
                0x08002dc0                __exidx_end = .

.preinit_array  0x08002dc0        0x0
                0x08002dc0                PROVIDE (__preinit_array_start, .)
 *(.preinit_array*)
                0x08002dc0                PROVIDE (__preinit_array_end, .)

.init_array     0x08002dc0        0x8
                0x08002dc0                PROVIDE (__init_array_start, .)
 *(SORT(.init_array.*))
 .init_array.00000
                0x08002dc0        0x4 c:/program files (x86)/gnu tools arm embedded/4.9 2015q1/bin/../lib/gcc/arm-none-eabi/4.9.3/../../../../arm-none-eabi/lib/armv7e-m\libc.a(lib_a-__call_atexit.o)
 *(.init_array*)
 .init_array    0x08002dc4        0x4 c:/program files (x86)/gnu tools arm embedded/4.9 2015q1/bin/../lib/gcc/arm-none-eabi/4.9.3/armv7e-m/crtbegin.o
                0x08002dc8                PROVIDE (__init_array_end, .)

.fini_array     0x08002dc8        0x4
                0x08002dc8                PROVIDE (__fini_array_start, .)
 *(SORT(.fini_array.*))
 *(.fini_array*)
 .fini_array    0x08002dc8        0x4 c:/program files (x86)/gnu tools arm embedded/4.9 2015q1/bin/../lib/gcc/arm-none-eabi/4.9.3/armv7e-m/crtbegin.o
                0x08002dcc                PROVIDE (__fini_array_end, .)
                0x08002dcc                _sidata = LOADADDR (.data)

.data           0x20000000      0x440 load address 0x08002dcc
                0x20000000                . = ALIGN (0x4)
                0x20000000                _sdata = .
 *(.data)
 .data          0x20000000       0x14 ..\obj\system_stm32f4xx.o
                0x20000000                SystemCoreClock
                0x20000004                AHBPrescTable
 *(.data*)
 *fill*         0x20000014        0x4 
 .data.impure_data
                0x20000018      0x428 c:/program files (x86)/gnu tools arm embedded/4.9 2015q1/bin/../lib/gcc/arm-none-eabi/4.9.3/../../../../arm-none-eabi/lib/armv7e-m\libc.a(lib_a-impure.o)
                0x20000440                . = ALIGN (0x4)
                0x20000440                _edata = .
                0x0800320c                _siccmram = LOADADDR (.ccmram)

.jcr            0x20000440        0x0 load address 0x0800320c
 .jcr           0x20000440        0x0 c:/program files (x86)/gnu tools arm embedded/4.9 2015q1/bin/../lib/gcc/arm-none-eabi/4.9.3/armv7e-m/crtbegin.o

.igot.plt       0x20000440        0x0 load address 0x0800320c
 .igot.plt      0x00000000        0x0 c:/program files (x86)/gnu tools arm embedded/4.9 2015q1/bin/../lib/gcc/arm-none-eabi/4.9.3/armv7e-m/crtbegin.o

.ccmram         0x10000000        0x0 load address 0x0800320c
                0x10000000                . = ALIGN (0x4)
                0x10000000                _sccmram = .
 *(.ccmram)
 *(.ccmram*)
                0x10000000                . = ALIGN (0x4)
                0x10000000                _eccmram = .
                0x10000000                . = ALIGN (0x4)

.bss            0x20000440       0x20
                0x20000440                _sbss = .
                0x20000440                __bss_start__ = _sbss
 *(.bss)
 .bss           0x20000440       0x1c c:/program files (x86)/gnu tools arm embedded/4.9 2015q1/bin/../lib/gcc/arm-none-eabi/4.9.3/armv7e-m/crtbegin.o
 .bss           0x2000045c        0x4 ..\obj\stm32f4xx_hal.o
 *(.bss*)
 *(COMMON)
                0x20000460                . = ALIGN (0x4)
                0x20000460                _ebss = .
                0x20000460                __bss_end__ = _ebss

._user_heap_stack
                0x20000460      0x600
                0x20000460                . = ALIGN (0x4)
                0x20000460                PROVIDE (end, .)
                0x20000460                PROVIDE (_end, .)
                0x20000660                . = (. + _Min_Heap_Size)
 *fill*         0x20000460      0x200 
                0x20000a60                . = (. + _Min_Stack_Size)
 *fill*         0x20000660      0x400 
                0x20000a60                . = ALIGN (0x4)

/DISCARD/
 libc.a(*)
 libm.a(*)
 libgcc.a(*)

.ARM.attributes
                0x00000000       0x2a
 *(.ARM.attributes)
 .ARM.attributes
                0x00000000       0x1e c:/program files (x86)/gnu tools arm embedded/4.9 2015q1/bin/../lib/gcc/arm-none-eabi/4.9.3/armv7e-m/crti.o
 .ARM.attributes
                0x0000001e       0x2e c:/program files (x86)/gnu tools arm embedded/4.9 2015q1/bin/../lib/gcc/arm-none-eabi/4.9.3/armv7e-m/crtbegin.o
 .ARM.attributes
                0x0000004c       0x33 ..\obj\Bit_Operations.o
 .ARM.attributes
                0x0000007f       0x33 ..\obj\Reset.o
 .ARM.attributes
                0x000000b2       0x33 ..\obj\stm32f4xx_hal_gpio.o
 .ARM.attributes
                0x000000e5       0x33 ..\obj\Clock.o
 .ARM.attributes
                0x00000118       0x33 ..\obj\stm32f4xx_hal_rcc.o
 .ARM.attributes
                0x0000014b       0x33 ..\obj\swdProtocol.o
 .ARM.attributes
                0x0000017e       0x33 ..\obj\configurePort.o
 .ARM.attributes
                0x000001b1       0x33 ..\obj\swd_Utilities.o
 .ARM.attributes
                0x000001e4       0x33 ..\obj\IO_Operations.o
 .ARM.attributes
                0x00000217       0x33 ..\obj\Register_ReadWrite.o
 .ARM.attributes
                0x0000024a       0x33 ..\obj\main.o
 .ARM.attributes
                0x0000027d       0x33 ..\obj\stm32f4xx_hal_cortex.o
 .ARM.attributes
                0x000002b0       0x33 ..\obj\system_stm32f4xx.o
 .ARM.attributes
                0x000002e3       0x21 ..\obj\startup_stm32f429xx.o
 .ARM.attributes
                0x00000304       0x33 ..\obj\stm32f4xx_hal.o
 .ARM.attributes
                0x00000337       0x33 ..\obj\Delay.o
 .ARM.attributes
                0x0000036a       0x33 ..\obj\stm32f4xx_it.o
 .ARM.attributes
                0x0000039d       0x1e c:/program files (x86)/gnu tools arm embedded/4.9 2015q1/bin/../lib/gcc/arm-none-eabi/4.9.3/armv7e-m/crtn.o
LOAD ..\obj\stm32f429i_discovery.o
LOAD ..\obj\SystemConfigure.o
LOAD ..\obj\Bit_Operations.o
LOAD ..\obj\stm32f4xx_hal_flash_ex.o
LOAD ..\obj\CoreDebug.o
LOAD ..\obj\stm32f4xx_hal_pwr_ex.o
LOAD ..\obj\Reset.o
LOAD ..\obj\stm32f4xx_hal_spi.o
LOAD ..\obj\stm32f4xx_hal_gpio.o
LOAD ..\obj\Clock.o
LOAD ..\obj\stm32f4xx_hal_flash_ramfunc.o
LOAD ..\obj\stm32f4xx_hal_rcc.o
LOAD ..\obj\swdProtocol.o
LOAD ..\obj\configurePort.o
LOAD ..\obj\swd_Utilities.o
LOAD ..\obj\IO_Operations.o
LOAD ..\obj\Register_ReadWrite.o
LOAD ..\obj\targetMain.o
LOAD ..\obj\main.o
LOAD ..\obj\stm32f4xx_hal_pwr.o
LOAD ..\obj\stm32f4xx_hal_cortex.o
LOAD ..\obj\system_stm32f4xx.o
LOAD ..\obj\startup_stm32f429xx.o
LOAD ..\obj\stm32f4xx_hal_dma.o
LOAD ..\obj\stm32f4xx_hal.o
LOAD ..\obj\Delay.o
LOAD ..\obj\stm32f4xx_it.o
LOAD ..\obj\Flash.o
LOAD ..\obj\stm32f4xx_hal_flash.o
LOAD ..\obj\stm32f4xx_hal_i2c.o
START GROUP
LOAD c:/program files (x86)/gnu tools arm embedded/4.9 2015q1/bin/../lib/gcc/arm-none-eabi/4.9.3/armv7e-m\libgcc.a
LOAD c:/program files (x86)/gnu tools arm embedded/4.9 2015q1/bin/../lib/gcc/arm-none-eabi/4.9.3/../../../../arm-none-eabi/lib/armv7e-m\libg.a
LOAD c:/program files (x86)/gnu tools arm embedded/4.9 2015q1/bin/../lib/gcc/arm-none-eabi/4.9.3/../../../../arm-none-eabi/lib/armv7e-m\libc.a
END GROUP
LOAD c:/program files (x86)/gnu tools arm embedded/4.9 2015q1/bin/../lib/gcc/arm-none-eabi/4.9.3/armv7e-m/crtend.o
LOAD c:/program files (x86)/gnu tools arm embedded/4.9 2015q1/bin/../lib/gcc/arm-none-eabi/4.9.3/armv7e-m/crtn.o
OUTPUT(SWD-for-ARM-Cortex-M4.elf elf32-littlearm)

.debug_info     0x00000000     0x4808
 .debug_info    0x00000000      0x30a ..\obj\Bit_Operations.o
 .debug_info    0x0000030a      0x1a7 ..\obj\Reset.o
 .debug_info    0x000004b1      0x6e6 ..\obj\stm32f4xx_hal_gpio.o
 .debug_info    0x00000b97      0x1c9 ..\obj\Clock.o
 .debug_info    0x00000d60      0xdfb ..\obj\stm32f4xx_hal_rcc.o
 .debug_info    0x00001b5b      0x100 ..\obj\swdProtocol.o
 .debug_info    0x00001c5b      0x48c ..\obj\configurePort.o
 .debug_info    0x000020e7      0x48a ..\obj\swd_Utilities.o
 .debug_info    0x00002571      0x199 ..\obj\IO_Operations.o
 .debug_info    0x0000270a      0x329 ..\obj\Register_ReadWrite.o
 .debug_info    0x00002a33      0x15f ..\obj\main.o
 .debug_info    0x00002b92      0xb8b ..\obj\stm32f4xx_hal_cortex.o
 .debug_info    0x0000371d      0x485 ..\obj\system_stm32f4xx.o
 .debug_info    0x00003ba2       0xba ..\obj\startup_stm32f429xx.o
 .debug_info    0x00003c5c      0x9fb ..\obj\stm32f4xx_hal.o
 .debug_info    0x00004657       0x82 ..\obj\Delay.o
 .debug_info    0x000046d9      0x12f ..\obj\stm32f4xx_it.o

.debug_abbrev   0x00000000     0x12e5
 .debug_abbrev  0x00000000      0x119 ..\obj\Bit_Operations.o
 .debug_abbrev  0x00000119       0xfd ..\obj\Reset.o
 .debug_abbrev  0x00000216      0x1aa ..\obj\stm32f4xx_hal_gpio.o
 .debug_abbrev  0x000003c0       0xfd ..\obj\Clock.o
 .debug_abbrev  0x000004bd      0x25a ..\obj\stm32f4xx_hal_rcc.o
 .debug_abbrev  0x00000717       0x9b ..\obj\swdProtocol.o
 .debug_abbrev  0x000007b2       0xff ..\obj\configurePort.o
 .debug_abbrev  0x000008b1      0x161 ..\obj\swd_Utilities.o
 .debug_abbrev  0x00000a12       0xd8 ..\obj\IO_Operations.o
 .debug_abbrev  0x00000aea       0xe2 ..\obj\Register_ReadWrite.o
 .debug_abbrev  0x00000bcc       0x89 ..\obj\main.o
 .debug_abbrev  0x00000c55      0x299 ..\obj\stm32f4xx_hal_cortex.o
 .debug_abbrev  0x00000eee       0xf4 ..\obj\system_stm32f4xx.o
 .debug_abbrev  0x00000fe2       0x12 ..\obj\startup_stm32f429xx.o
 .debug_abbrev  0x00000ff4      0x1ff ..\obj\stm32f4xx_hal.o
 .debug_abbrev  0x000011f3       0x73 ..\obj\Delay.o
 .debug_abbrev  0x00001266       0x7f ..\obj\stm32f4xx_it.o

.debug_aranges  0x00000000      0x228
 .debug_aranges
                0x00000000       0x20 ..\obj\Bit_Operations.o
 .debug_aranges
                0x00000020       0x20 ..\obj\Reset.o
 .debug_aranges
                0x00000040       0x20 ..\obj\stm32f4xx_hal_gpio.o
 .debug_aranges
                0x00000060       0x20 ..\obj\Clock.o
 .debug_aranges
                0x00000080       0x20 ..\obj\stm32f4xx_hal_rcc.o
 .debug_aranges
                0x000000a0       0x20 ..\obj\swdProtocol.o
 .debug_aranges
                0x000000c0       0x20 ..\obj\configurePort.o
 .debug_aranges
                0x000000e0       0x20 ..\obj\swd_Utilities.o
 .debug_aranges
                0x00000100       0x20 ..\obj\IO_Operations.o
 .debug_aranges
                0x00000120       0x20 ..\obj\Register_ReadWrite.o
 .debug_aranges
                0x00000140       0x20 ..\obj\main.o
 .debug_aranges
                0x00000160       0x20 ..\obj\stm32f4xx_hal_cortex.o
 .debug_aranges
                0x00000180       0x20 ..\obj\system_stm32f4xx.o
 .debug_aranges
                0x000001a0       0x28 ..\obj\startup_stm32f429xx.o
 .debug_aranges
                0x000001c8       0x20 ..\obj\stm32f4xx_hal.o
 .debug_aranges
                0x000001e8       0x20 ..\obj\Delay.o
 .debug_aranges
                0x00000208       0x20 ..\obj\stm32f4xx_it.o

.debug_line     0x00000000     0x1cd7
 .debug_line    0x00000000      0x1af ..\obj\Bit_Operations.o
 .debug_line    0x000001af      0x15f ..\obj\Reset.o
 .debug_line    0x0000030e      0x366 ..\obj\stm32f4xx_hal_gpio.o
 .debug_line    0x00000674      0x164 ..\obj\Clock.o
 .debug_line    0x000007d8      0x513 ..\obj\stm32f4xx_hal_rcc.o
 .debug_line    0x00000ceb       0xd7 ..\obj\swdProtocol.o
 .debug_line    0x00000dc2      0x172 ..\obj\configurePort.o
 .debug_line    0x00000f34      0x16b ..\obj\swd_Utilities.o
 .debug_line    0x0000109f      0x14b ..\obj\IO_Operations.o
 .debug_line    0x000011ea      0x113 ..\obj\Register_ReadWrite.o
 .debug_line    0x000012fd       0xd8 ..\obj\main.o
 .debug_line    0x000013d5      0x2b7 ..\obj\stm32f4xx_hal_cortex.o
 .debug_line    0x0000168c      0x100 ..\obj\system_stm32f4xx.o
 .debug_line    0x0000178c       0xa9 ..\obj\startup_stm32f429xx.o
 .debug_line    0x00001835      0x2b8 ..\obj\stm32f4xx_hal.o
 .debug_line    0x00001aed       0x7e ..\obj\Delay.o
 .debug_line    0x00001b6b      0x16c ..\obj\stm32f4xx_it.o

.debug_str      0x00000000     0x1b51
 .debug_str     0x00000000      0x249 ..\obj\Bit_Operations.o
                                0x28a (size before relaxing)
 .debug_str     0x00000249       0x61 ..\obj\Reset.o
                                0x21c (size before relaxing)
 .debug_str     0x000002aa      0x2fe ..\obj\stm32f4xx_hal_gpio.o
                                0x4e5 (size before relaxing)
 .debug_str     0x000005a8       0x96 ..\obj\Clock.o
                                0x251 (size before relaxing)
 .debug_str     0x0000063e      0x365 ..\obj\stm32f4xx_hal_rcc.o
                                0x69f (size before relaxing)
 .debug_str     0x000009a3       0x7e ..\obj\swdProtocol.o
                                0x1e2 (size before relaxing)
 .debug_str     0x00000a21       0xb5 ..\obj\configurePort.o
                                0x395 (size before relaxing)
 .debug_str     0x00000ad6      0x1c5 ..\obj\swd_Utilities.o
                                0x34b (size before relaxing)
 .debug_str     0x00000c9b       0x53 ..\obj\IO_Operations.o
                                0x224 (size before relaxing)
 .debug_str     0x00000cee      0x105 ..\obj\Register_ReadWrite.o
                                0x2a2 (size before relaxing)
 .debug_str     0x00000df3       0x79 ..\obj\main.o
                                0x1fc (size before relaxing)
 .debug_str     0x00000e6c      0x88c ..\obj\stm32f4xx_hal_cortex.o
                                0xb2c (size before relaxing)
 .debug_str     0x000016f8       0x73 ..\obj\system_stm32f4xx.o
                                0x314 (size before relaxing)
 .debug_str     0x0000176b      0x26e ..\obj\stm32f4xx_hal.o
                                0xaf1 (size before relaxing)
 .debug_str     0x000019d9       0x63 ..\obj\Delay.o
                                 0xcc (size before relaxing)
 .debug_str     0x00001a3c      0x115 ..\obj\stm32f4xx_it.o
                                0x270 (size before relaxing)

.comment        0x00000000       0x70
 .comment       0x00000000       0x70 ..\obj\Bit_Operations.o
                                 0x71 (size before relaxing)
 .comment       0x00000000       0x71 ..\obj\Reset.o
 .comment       0x00000000       0x71 ..\obj\stm32f4xx_hal_gpio.o
 .comment       0x00000000       0x71 ..\obj\Clock.o
 .comment       0x00000000       0x71 ..\obj\stm32f4xx_hal_rcc.o
 .comment       0x00000000       0x71 ..\obj\swdProtocol.o
 .comment       0x00000000       0x71 ..\obj\configurePort.o
 .comment       0x00000000       0x71 ..\obj\swd_Utilities.o
 .comment       0x00000000       0x71 ..\obj\IO_Operations.o
 .comment       0x00000000       0x71 ..\obj\Register_ReadWrite.o
 .comment       0x00000000       0x71 ..\obj\main.o
 .comment       0x00000000       0x71 ..\obj\stm32f4xx_hal_cortex.o
 .comment       0x00000000       0x71 ..\obj\system_stm32f4xx.o
 .comment       0x00000000       0x71 ..\obj\stm32f4xx_hal.o
 .comment       0x00000000       0x71 ..\obj\Delay.o
 .comment       0x00000000       0x71 ..\obj\stm32f4xx_it.o

.debug_frame    0x00000000     0x12ac
 .debug_frame   0x00000000      0x154 ..\obj\Bit_Operations.o
 .debug_frame   0x00000154       0x50 ..\obj\Reset.o
 .debug_frame   0x000001a4      0x14c ..\obj\stm32f4xx_hal_gpio.o
 .debug_frame   0x000002f0       0x88 ..\obj\Clock.o
 .debug_frame   0x00000378      0x204 ..\obj\stm32f4xx_hal_rcc.o
 .debug_frame   0x0000057c       0x54 ..\obj\swdProtocol.o
 .debug_frame   0x000005d0       0xe8 ..\obj\configurePort.o
 .debug_frame   0x000006b8      0x18c ..\obj\swd_Utilities.o
 .debug_frame   0x00000844       0x34 ..\obj\IO_Operations.o
 .debug_frame   0x00000878      0x130 ..\obj\Register_ReadWrite.o
 .debug_frame   0x000009a8       0x30 ..\obj\main.o
 .debug_frame   0x000009d8      0x428 ..\obj\stm32f4xx_hal_cortex.o
 .debug_frame   0x00000e00       0x58 ..\obj\system_stm32f4xx.o
 .debug_frame   0x00000e58      0x310 ..\obj\stm32f4xx_hal.o
 .debug_frame   0x00001168       0x38 ..\obj\Delay.o
 .debug_frame   0x000011a0      0x10c ..\obj\stm32f4xx_it.o

.debug_ranges   0x00000000       0x20
 .debug_ranges  0x00000000       0x20 ..\obj\startup_stm32f429xx.o
