
FlashProgrammer.elf:     file format elf32-littlearm


Disassembly of section .text:

200001ac <__do_global_dtors_aux>:
200001ac:	b510      	push	{r4, lr}
200001ae:	4c05      	ldr	r4, [pc, #20]	; (200001c4 <__do_global_dtors_aux+0x18>)
200001b0:	7823      	ldrb	r3, [r4, #0]
200001b2:	b933      	cbnz	r3, 200001c2 <__do_global_dtors_aux+0x16>
200001b4:	4b04      	ldr	r3, [pc, #16]	; (200001c8 <__do_global_dtors_aux+0x1c>)
200001b6:	b113      	cbz	r3, 200001be <__do_global_dtors_aux+0x12>
200001b8:	4804      	ldr	r0, [pc, #16]	; (200001cc <__do_global_dtors_aux+0x20>)
200001ba:	f3af 8000 	nop.w
200001be:	2301      	movs	r3, #1
200001c0:	7023      	strb	r3, [r4, #0]
200001c2:	bd10      	pop	{r4, pc}
200001c4:	20004450 	.word	0x20004450
200001c8:	00000000 	.word	0x00000000
200001cc:	20003fd0 	.word	0x20003fd0

200001d0 <frame_dummy>:
200001d0:	4b08      	ldr	r3, [pc, #32]	; (200001f4 <frame_dummy+0x24>)
200001d2:	b510      	push	{r4, lr}
200001d4:	b11b      	cbz	r3, 200001de <frame_dummy+0xe>
200001d6:	4808      	ldr	r0, [pc, #32]	; (200001f8 <frame_dummy+0x28>)
200001d8:	4908      	ldr	r1, [pc, #32]	; (200001fc <frame_dummy+0x2c>)
200001da:	f3af 8000 	nop.w
200001de:	4808      	ldr	r0, [pc, #32]	; (20000200 <frame_dummy+0x30>)
200001e0:	6803      	ldr	r3, [r0, #0]
200001e2:	b903      	cbnz	r3, 200001e6 <frame_dummy+0x16>
200001e4:	bd10      	pop	{r4, pc}
200001e6:	4b07      	ldr	r3, [pc, #28]	; (20000204 <frame_dummy+0x34>)
200001e8:	2b00      	cmp	r3, #0
200001ea:	d0fb      	beq.n	200001e4 <frame_dummy+0x14>
200001ec:	e8bd 4010 	ldmia.w	sp!, {r4, lr}
200001f0:	4718      	bx	r3
200001f2:	bf00      	nop
200001f4:	00000000 	.word	0x00000000
200001f8:	20003fd0 	.word	0x20003fd0
200001fc:	20004454 	.word	0x20004454
20000200:	20004450 	.word	0x20004450
20000204:	00000000 	.word	0x00000000

20000208 <readMemoryData>:
20000208:	b480      	push	{r7}
2000020a:	b085      	sub	sp, #20
2000020c:	af00      	add	r7, sp, #0
2000020e:	6078      	str	r0, [r7, #4]
20000210:	2300      	movs	r3, #0
20000212:	60fb      	str	r3, [r7, #12]
20000214:	687b      	ldr	r3, [r7, #4]
20000216:	681b      	ldr	r3, [r3, #0]
20000218:	60fb      	str	r3, [r7, #12]
2000021a:	68fb      	ldr	r3, [r7, #12]
2000021c:	4618      	mov	r0, r3
2000021e:	3714      	adds	r7, #20
20000220:	46bd      	mov	sp, r7
20000222:	f85d 7b04 	ldr.w	r7, [sp], #4
20000226:	4770      	bx	lr

20000228 <writeMemoryData>:
20000228:	b480      	push	{r7}
2000022a:	b083      	sub	sp, #12
2000022c:	af00      	add	r7, sp, #0
2000022e:	6078      	str	r0, [r7, #4]
20000230:	6039      	str	r1, [r7, #0]
20000232:	687b      	ldr	r3, [r7, #4]
20000234:	683a      	ldr	r2, [r7, #0]
20000236:	601a      	str	r2, [r3, #0]
20000238:	370c      	adds	r7, #12
2000023a:	46bd      	mov	sp, r7
2000023c:	f85d 7b04 	ldr.w	r7, [sp], #4
20000240:	4770      	bx	lr
20000242:	bf00      	nop

20000244 <SystemClock_Config>:
20000244:	b580      	push	{r7, lr}
20000246:	b094      	sub	sp, #80	; 0x50
20000248:	af00      	add	r7, sp, #0
2000024a:	4a23      	ldr	r2, [pc, #140]	; (200002d8 <SystemClock_Config+0x94>)
2000024c:	4b22      	ldr	r3, [pc, #136]	; (200002d8 <SystemClock_Config+0x94>)
2000024e:	6c1b      	ldr	r3, [r3, #64]	; 0x40
20000250:	f043 5380 	orr.w	r3, r3, #268435456	; 0x10000000
20000254:	6413      	str	r3, [r2, #64]	; 0x40
20000256:	4b20      	ldr	r3, [pc, #128]	; (200002d8 <SystemClock_Config+0x94>)
20000258:	6c1b      	ldr	r3, [r3, #64]	; 0x40
2000025a:	f003 5380 	and.w	r3, r3, #268435456	; 0x10000000
2000025e:	60bb      	str	r3, [r7, #8]
20000260:	68bb      	ldr	r3, [r7, #8]
20000262:	4a1e      	ldr	r2, [pc, #120]	; (200002dc <SystemClock_Config+0x98>)
20000264:	4b1d      	ldr	r3, [pc, #116]	; (200002dc <SystemClock_Config+0x98>)
20000266:	681b      	ldr	r3, [r3, #0]
20000268:	f443 4340 	orr.w	r3, r3, #49152	; 0xc000
2000026c:	6013      	str	r3, [r2, #0]
2000026e:	4b1b      	ldr	r3, [pc, #108]	; (200002dc <SystemClock_Config+0x98>)
20000270:	681b      	ldr	r3, [r3, #0]
20000272:	f403 4340 	and.w	r3, r3, #49152	; 0xc000
20000276:	607b      	str	r3, [r7, #4]
20000278:	687b      	ldr	r3, [r7, #4]
2000027a:	2301      	movs	r3, #1
2000027c:	60fb      	str	r3, [r7, #12]
2000027e:	2301      	movs	r3, #1
20000280:	613b      	str	r3, [r7, #16]
20000282:	2302      	movs	r3, #2
20000284:	627b      	str	r3, [r7, #36]	; 0x24
20000286:	f44f 0380 	mov.w	r3, #4194304	; 0x400000
2000028a:	62bb      	str	r3, [r7, #40]	; 0x28
2000028c:	2308      	movs	r3, #8
2000028e:	62fb      	str	r3, [r7, #44]	; 0x2c
20000290:	f44f 73b4 	mov.w	r3, #360	; 0x168
20000294:	633b      	str	r3, [r7, #48]	; 0x30
20000296:	2302      	movs	r3, #2
20000298:	637b      	str	r3, [r7, #52]	; 0x34
2000029a:	2307      	movs	r3, #7
2000029c:	63bb      	str	r3, [r7, #56]	; 0x38
2000029e:	f107 030c 	add.w	r3, r7, #12
200002a2:	4618      	mov	r0, r3
200002a4:	f001 fae4 	bl	20001870 <HAL_RCC_OscConfig>
200002a8:	f000 fe28 	bl	20000efc <HAL_PWREx_EnableOverDrive>
200002ac:	230f      	movs	r3, #15
200002ae:	63fb      	str	r3, [r7, #60]	; 0x3c
200002b0:	2302      	movs	r3, #2
200002b2:	643b      	str	r3, [r7, #64]	; 0x40
200002b4:	2300      	movs	r3, #0
200002b6:	647b      	str	r3, [r7, #68]	; 0x44
200002b8:	f44f 53a0 	mov.w	r3, #5120	; 0x1400
200002bc:	64bb      	str	r3, [r7, #72]	; 0x48
200002be:	f44f 5380 	mov.w	r3, #4096	; 0x1000
200002c2:	64fb      	str	r3, [r7, #76]	; 0x4c
200002c4:	f107 033c 	add.w	r3, r7, #60	; 0x3c
200002c8:	4618      	mov	r0, r3
200002ca:	2105      	movs	r1, #5
200002cc:	f001 fd2c 	bl	20001d28 <HAL_RCC_ClockConfig>
200002d0:	3750      	adds	r7, #80	; 0x50
200002d2:	46bd      	mov	sp, r7
200002d4:	bd80      	pop	{r7, pc}
200002d6:	bf00      	nop
200002d8:	40023800 	.word	0x40023800
200002dc:	40007000 	.word	0x40007000

200002e0 <FlashSystemConfig>:
200002e0:	b580      	push	{r7, lr}
200002e2:	af00      	add	r7, sp, #0
200002e4:	f002 fdfe 	bl	20002ee4 <HAL_Init>
200002e8:	f002 fa96 	bl	20002818 <configureLED>
200002ec:	f7ff ffaa 	bl	20000244 <SystemClock_Config>
200002f0:	bd80      	pop	{r7, pc}
200002f2:	bf00      	nop

200002f4 <HAL_FLASHEx_Erase>:
200002f4:	b580      	push	{r7, lr}
200002f6:	b084      	sub	sp, #16
200002f8:	af00      	add	r7, sp, #0
200002fa:	6078      	str	r0, [r7, #4]
200002fc:	6039      	str	r1, [r7, #0]
200002fe:	2301      	movs	r3, #1
20000300:	73fb      	strb	r3, [r7, #15]
20000302:	2300      	movs	r3, #0
20000304:	60bb      	str	r3, [r7, #8]
20000306:	4b34      	ldr	r3, [pc, #208]	; (200003d8 <HAL_FLASHEx_Erase+0xe4>)
20000308:	7e1b      	ldrb	r3, [r3, #24]
2000030a:	2b01      	cmp	r3, #1
2000030c:	d101      	bne.n	20000312 <HAL_FLASHEx_Erase+0x1e>
2000030e:	2302      	movs	r3, #2
20000310:	e05e      	b.n	200003d0 <HAL_FLASHEx_Erase+0xdc>
20000312:	4b31      	ldr	r3, [pc, #196]	; (200003d8 <HAL_FLASHEx_Erase+0xe4>)
20000314:	2201      	movs	r2, #1
20000316:	761a      	strb	r2, [r3, #24]
20000318:	f24c 3050 	movw	r0, #50000	; 0xc350
2000031c:	f003 fca6 	bl	20003c6c <FLASH_WaitForLastOperation>
20000320:	4603      	mov	r3, r0
20000322:	73fb      	strb	r3, [r7, #15]
20000324:	7bfb      	ldrb	r3, [r7, #15]
20000326:	2b00      	cmp	r3, #0
20000328:	d14e      	bne.n	200003c8 <HAL_FLASHEx_Erase+0xd4>
2000032a:	683b      	ldr	r3, [r7, #0]
2000032c:	f04f 32ff 	mov.w	r2, #4294967295
20000330:	601a      	str	r2, [r3, #0]
20000332:	687b      	ldr	r3, [r7, #4]
20000334:	681b      	ldr	r3, [r3, #0]
20000336:	2b01      	cmp	r3, #1
20000338:	d117      	bne.n	2000036a <HAL_FLASHEx_Erase+0x76>
2000033a:	687b      	ldr	r3, [r7, #4]
2000033c:	691b      	ldr	r3, [r3, #16]
2000033e:	b2da      	uxtb	r2, r3
20000340:	687b      	ldr	r3, [r7, #4]
20000342:	685b      	ldr	r3, [r3, #4]
20000344:	4610      	mov	r0, r2
20000346:	4619      	mov	r1, r3
20000348:	f000 f9d0 	bl	200006ec <FLASH_MassErase>
2000034c:	f24c 3050 	movw	r0, #50000	; 0xc350
20000350:	f003 fc8c 	bl	20003c6c <FLASH_WaitForLastOperation>
20000354:	4603      	mov	r3, r0
20000356:	73fb      	strb	r3, [r7, #15]
20000358:	4a20      	ldr	r2, [pc, #128]	; (200003dc <HAL_FLASHEx_Erase+0xe8>)
2000035a:	4b20      	ldr	r3, [pc, #128]	; (200003dc <HAL_FLASHEx_Erase+0xe8>)
2000035c:	691b      	ldr	r3, [r3, #16]
2000035e:	f423 4300 	bic.w	r3, r3, #32768	; 0x8000
20000362:	f023 0304 	bic.w	r3, r3, #4
20000366:	6113      	str	r3, [r2, #16]
20000368:	e02e      	b.n	200003c8 <HAL_FLASHEx_Erase+0xd4>
2000036a:	687b      	ldr	r3, [r7, #4]
2000036c:	689b      	ldr	r3, [r3, #8]
2000036e:	60bb      	str	r3, [r7, #8]
20000370:	e022      	b.n	200003b8 <HAL_FLASHEx_Erase+0xc4>
20000372:	687b      	ldr	r3, [r7, #4]
20000374:	691b      	ldr	r3, [r3, #16]
20000376:	b2db      	uxtb	r3, r3
20000378:	68b8      	ldr	r0, [r7, #8]
2000037a:	4619      	mov	r1, r3
2000037c:	f000 f9f4 	bl	20000768 <FLASH_Erase_Sector>
20000380:	f24c 3050 	movw	r0, #50000	; 0xc350
20000384:	f003 fc72 	bl	20003c6c <FLASH_WaitForLastOperation>
20000388:	4603      	mov	r3, r0
2000038a:	73fb      	strb	r3, [r7, #15]
2000038c:	4a13      	ldr	r2, [pc, #76]	; (200003dc <HAL_FLASHEx_Erase+0xe8>)
2000038e:	4b13      	ldr	r3, [pc, #76]	; (200003dc <HAL_FLASHEx_Erase+0xe8>)
20000390:	691b      	ldr	r3, [r3, #16]
20000392:	f023 0302 	bic.w	r3, r3, #2
20000396:	6113      	str	r3, [r2, #16]
20000398:	4a10      	ldr	r2, [pc, #64]	; (200003dc <HAL_FLASHEx_Erase+0xe8>)
2000039a:	4b10      	ldr	r3, [pc, #64]	; (200003dc <HAL_FLASHEx_Erase+0xe8>)
2000039c:	691b      	ldr	r3, [r3, #16]
2000039e:	f023 03f8 	bic.w	r3, r3, #248	; 0xf8
200003a2:	6113      	str	r3, [r2, #16]
200003a4:	7bfb      	ldrb	r3, [r7, #15]
200003a6:	2b00      	cmp	r3, #0
200003a8:	d003      	beq.n	200003b2 <HAL_FLASHEx_Erase+0xbe>
200003aa:	683b      	ldr	r3, [r7, #0]
200003ac:	68ba      	ldr	r2, [r7, #8]
200003ae:	601a      	str	r2, [r3, #0]
200003b0:	e00a      	b.n	200003c8 <HAL_FLASHEx_Erase+0xd4>
200003b2:	68bb      	ldr	r3, [r7, #8]
200003b4:	3301      	adds	r3, #1
200003b6:	60bb      	str	r3, [r7, #8]
200003b8:	687b      	ldr	r3, [r7, #4]
200003ba:	68da      	ldr	r2, [r3, #12]
200003bc:	687b      	ldr	r3, [r7, #4]
200003be:	689b      	ldr	r3, [r3, #8]
200003c0:	441a      	add	r2, r3
200003c2:	68bb      	ldr	r3, [r7, #8]
200003c4:	429a      	cmp	r2, r3
200003c6:	d8d4      	bhi.n	20000372 <HAL_FLASHEx_Erase+0x7e>
200003c8:	4b03      	ldr	r3, [pc, #12]	; (200003d8 <HAL_FLASHEx_Erase+0xe4>)
200003ca:	2200      	movs	r2, #0
200003cc:	761a      	strb	r2, [r3, #24]
200003ce:	7bfb      	ldrb	r3, [r7, #15]
200003d0:	4618      	mov	r0, r3
200003d2:	3710      	adds	r7, #16
200003d4:	46bd      	mov	sp, r7
200003d6:	bd80      	pop	{r7, pc}
200003d8:	2000448c 	.word	0x2000448c
200003dc:	40023c00 	.word	0x40023c00

200003e0 <HAL_FLASHEx_Erase_IT>:
200003e0:	b580      	push	{r7, lr}
200003e2:	b084      	sub	sp, #16
200003e4:	af00      	add	r7, sp, #0
200003e6:	6078      	str	r0, [r7, #4]
200003e8:	2300      	movs	r3, #0
200003ea:	73fb      	strb	r3, [r7, #15]
200003ec:	4b25      	ldr	r3, [pc, #148]	; (20000484 <HAL_FLASHEx_Erase_IT+0xa4>)
200003ee:	7e1b      	ldrb	r3, [r3, #24]
200003f0:	2b01      	cmp	r3, #1
200003f2:	d101      	bne.n	200003f8 <HAL_FLASHEx_Erase_IT+0x18>
200003f4:	2302      	movs	r3, #2
200003f6:	e040      	b.n	2000047a <HAL_FLASHEx_Erase_IT+0x9a>
200003f8:	4b22      	ldr	r3, [pc, #136]	; (20000484 <HAL_FLASHEx_Erase_IT+0xa4>)
200003fa:	2201      	movs	r2, #1
200003fc:	761a      	strb	r2, [r3, #24]
200003fe:	4a22      	ldr	r2, [pc, #136]	; (20000488 <HAL_FLASHEx_Erase_IT+0xa8>)
20000400:	4b21      	ldr	r3, [pc, #132]	; (20000488 <HAL_FLASHEx_Erase_IT+0xa8>)
20000402:	691b      	ldr	r3, [r3, #16]
20000404:	f043 7380 	orr.w	r3, r3, #16777216	; 0x1000000
20000408:	6113      	str	r3, [r2, #16]
2000040a:	4a1f      	ldr	r2, [pc, #124]	; (20000488 <HAL_FLASHEx_Erase_IT+0xa8>)
2000040c:	4b1e      	ldr	r3, [pc, #120]	; (20000488 <HAL_FLASHEx_Erase_IT+0xa8>)
2000040e:	691b      	ldr	r3, [r3, #16]
20000410:	f043 7300 	orr.w	r3, r3, #33554432	; 0x2000000
20000414:	6113      	str	r3, [r2, #16]
20000416:	4b1c      	ldr	r3, [pc, #112]	; (20000488 <HAL_FLASHEx_Erase_IT+0xa8>)
20000418:	22f3      	movs	r2, #243	; 0xf3
2000041a:	60da      	str	r2, [r3, #12]
2000041c:	687b      	ldr	r3, [r7, #4]
2000041e:	681b      	ldr	r3, [r3, #0]
20000420:	2b01      	cmp	r3, #1
20000422:	d110      	bne.n	20000446 <HAL_FLASHEx_Erase_IT+0x66>
20000424:	4b17      	ldr	r3, [pc, #92]	; (20000484 <HAL_FLASHEx_Erase_IT+0xa4>)
20000426:	2202      	movs	r2, #2
20000428:	701a      	strb	r2, [r3, #0]
2000042a:	687b      	ldr	r3, [r7, #4]
2000042c:	685b      	ldr	r3, [r3, #4]
2000042e:	4a15      	ldr	r2, [pc, #84]	; (20000484 <HAL_FLASHEx_Erase_IT+0xa4>)
20000430:	6113      	str	r3, [r2, #16]
20000432:	687b      	ldr	r3, [r7, #4]
20000434:	691b      	ldr	r3, [r3, #16]
20000436:	b2da      	uxtb	r2, r3
20000438:	687b      	ldr	r3, [r7, #4]
2000043a:	685b      	ldr	r3, [r3, #4]
2000043c:	4610      	mov	r0, r2
2000043e:	4619      	mov	r1, r3
20000440:	f000 f954 	bl	200006ec <FLASH_MassErase>
20000444:	e018      	b.n	20000478 <HAL_FLASHEx_Erase_IT+0x98>
20000446:	4b0f      	ldr	r3, [pc, #60]	; (20000484 <HAL_FLASHEx_Erase_IT+0xa4>)
20000448:	2201      	movs	r2, #1
2000044a:	701a      	strb	r2, [r3, #0]
2000044c:	687b      	ldr	r3, [r7, #4]
2000044e:	68db      	ldr	r3, [r3, #12]
20000450:	4a0c      	ldr	r2, [pc, #48]	; (20000484 <HAL_FLASHEx_Erase_IT+0xa4>)
20000452:	6053      	str	r3, [r2, #4]
20000454:	687b      	ldr	r3, [r7, #4]
20000456:	689b      	ldr	r3, [r3, #8]
20000458:	4a0a      	ldr	r2, [pc, #40]	; (20000484 <HAL_FLASHEx_Erase_IT+0xa4>)
2000045a:	60d3      	str	r3, [r2, #12]
2000045c:	687b      	ldr	r3, [r7, #4]
2000045e:	691b      	ldr	r3, [r3, #16]
20000460:	b2da      	uxtb	r2, r3
20000462:	4b08      	ldr	r3, [pc, #32]	; (20000484 <HAL_FLASHEx_Erase_IT+0xa4>)
20000464:	721a      	strb	r2, [r3, #8]
20000466:	687b      	ldr	r3, [r7, #4]
20000468:	689a      	ldr	r2, [r3, #8]
2000046a:	687b      	ldr	r3, [r7, #4]
2000046c:	691b      	ldr	r3, [r3, #16]
2000046e:	b2db      	uxtb	r3, r3
20000470:	4610      	mov	r0, r2
20000472:	4619      	mov	r1, r3
20000474:	f000 f978 	bl	20000768 <FLASH_Erase_Sector>
20000478:	7bfb      	ldrb	r3, [r7, #15]
2000047a:	4618      	mov	r0, r3
2000047c:	3710      	adds	r7, #16
2000047e:	46bd      	mov	sp, r7
20000480:	bd80      	pop	{r7, pc}
20000482:	bf00      	nop
20000484:	2000448c 	.word	0x2000448c
20000488:	40023c00 	.word	0x40023c00

2000048c <HAL_FLASHEx_OBProgram>:
2000048c:	b580      	push	{r7, lr}
2000048e:	b084      	sub	sp, #16
20000490:	af00      	add	r7, sp, #0
20000492:	6078      	str	r0, [r7, #4]
20000494:	2301      	movs	r3, #1
20000496:	73fb      	strb	r3, [r7, #15]
20000498:	4b33      	ldr	r3, [pc, #204]	; (20000568 <HAL_FLASHEx_OBProgram+0xdc>)
2000049a:	7e1b      	ldrb	r3, [r3, #24]
2000049c:	2b01      	cmp	r3, #1
2000049e:	d101      	bne.n	200004a4 <HAL_FLASHEx_OBProgram+0x18>
200004a0:	2302      	movs	r3, #2
200004a2:	e05d      	b.n	20000560 <HAL_FLASHEx_OBProgram+0xd4>
200004a4:	4b30      	ldr	r3, [pc, #192]	; (20000568 <HAL_FLASHEx_OBProgram+0xdc>)
200004a6:	2201      	movs	r2, #1
200004a8:	761a      	strb	r2, [r3, #24]
200004aa:	687b      	ldr	r3, [r7, #4]
200004ac:	681b      	ldr	r3, [r3, #0]
200004ae:	f003 0301 	and.w	r3, r3, #1
200004b2:	2b00      	cmp	r3, #0
200004b4:	d018      	beq.n	200004e8 <HAL_FLASHEx_OBProgram+0x5c>
200004b6:	687b      	ldr	r3, [r7, #4]
200004b8:	685b      	ldr	r3, [r3, #4]
200004ba:	2b01      	cmp	r3, #1
200004bc:	d10a      	bne.n	200004d4 <HAL_FLASHEx_OBProgram+0x48>
200004be:	687b      	ldr	r3, [r7, #4]
200004c0:	689a      	ldr	r2, [r3, #8]
200004c2:	687b      	ldr	r3, [r7, #4]
200004c4:	68db      	ldr	r3, [r3, #12]
200004c6:	4610      	mov	r0, r2
200004c8:	4619      	mov	r1, r3
200004ca:	f000 f9a9 	bl	20000820 <FLASH_OB_EnableWRP>
200004ce:	4603      	mov	r3, r0
200004d0:	73fb      	strb	r3, [r7, #15]
200004d2:	e009      	b.n	200004e8 <HAL_FLASHEx_OBProgram+0x5c>
200004d4:	687b      	ldr	r3, [r7, #4]
200004d6:	689a      	ldr	r2, [r3, #8]
200004d8:	687b      	ldr	r3, [r7, #4]
200004da:	68db      	ldr	r3, [r3, #12]
200004dc:	4610      	mov	r0, r2
200004de:	4619      	mov	r1, r3
200004e0:	f000 fa0c 	bl	200008fc <FLASH_OB_DisableWRP>
200004e4:	4603      	mov	r3, r0
200004e6:	73fb      	strb	r3, [r7, #15]
200004e8:	687b      	ldr	r3, [r7, #4]
200004ea:	681b      	ldr	r3, [r3, #0]
200004ec:	f003 0302 	and.w	r3, r3, #2
200004f0:	2b00      	cmp	r3, #0
200004f2:	d007      	beq.n	20000504 <HAL_FLASHEx_OBProgram+0x78>
200004f4:	687b      	ldr	r3, [r7, #4]
200004f6:	691b      	ldr	r3, [r3, #16]
200004f8:	b2db      	uxtb	r3, r3
200004fa:	4618      	mov	r0, r3
200004fc:	f000 fb22 	bl	20000b44 <FLASH_OB_RDP_LevelConfig>
20000500:	4603      	mov	r3, r0
20000502:	73fb      	strb	r3, [r7, #15]
20000504:	687b      	ldr	r3, [r7, #4]
20000506:	681b      	ldr	r3, [r3, #0]
20000508:	f003 0304 	and.w	r3, r3, #4
2000050c:	2b00      	cmp	r3, #0
2000050e:	d015      	beq.n	2000053c <HAL_FLASHEx_OBProgram+0xb0>
20000510:	687b      	ldr	r3, [r7, #4]
20000512:	7e1b      	ldrb	r3, [r3, #24]
20000514:	f003 0320 	and.w	r3, r3, #32
20000518:	b2d9      	uxtb	r1, r3
2000051a:	687b      	ldr	r3, [r7, #4]
2000051c:	7e1b      	ldrb	r3, [r3, #24]
2000051e:	f003 0340 	and.w	r3, r3, #64	; 0x40
20000522:	b2da      	uxtb	r2, r3
20000524:	687b      	ldr	r3, [r7, #4]
20000526:	7e1b      	ldrb	r3, [r3, #24]
20000528:	f023 037f 	bic.w	r3, r3, #127	; 0x7f
2000052c:	b2db      	uxtb	r3, r3
2000052e:	4608      	mov	r0, r1
20000530:	4611      	mov	r1, r2
20000532:	461a      	mov	r2, r3
20000534:	f000 fb20 	bl	20000b78 <FLASH_OB_UserConfig>
20000538:	4603      	mov	r3, r0
2000053a:	73fb      	strb	r3, [r7, #15]
2000053c:	687b      	ldr	r3, [r7, #4]
2000053e:	681b      	ldr	r3, [r3, #0]
20000540:	f003 0308 	and.w	r3, r3, #8
20000544:	2b00      	cmp	r3, #0
20000546:	d007      	beq.n	20000558 <HAL_FLASHEx_OBProgram+0xcc>
20000548:	687b      	ldr	r3, [r7, #4]
2000054a:	695b      	ldr	r3, [r3, #20]
2000054c:	b2db      	uxtb	r3, r3
2000054e:	4618      	mov	r0, r3
20000550:	f000 fb42 	bl	20000bd8 <FLASH_OB_BOR_LevelConfig>
20000554:	4603      	mov	r3, r0
20000556:	73fb      	strb	r3, [r7, #15]
20000558:	4b03      	ldr	r3, [pc, #12]	; (20000568 <HAL_FLASHEx_OBProgram+0xdc>)
2000055a:	2200      	movs	r2, #0
2000055c:	761a      	strb	r2, [r3, #24]
2000055e:	7bfb      	ldrb	r3, [r7, #15]
20000560:	4618      	mov	r0, r3
20000562:	3710      	adds	r7, #16
20000564:	46bd      	mov	sp, r7
20000566:	bd80      	pop	{r7, pc}
20000568:	2000448c 	.word	0x2000448c

2000056c <HAL_FLASHEx_OBGetConfig>:
2000056c:	b580      	push	{r7, lr}
2000056e:	b082      	sub	sp, #8
20000570:	af00      	add	r7, sp, #0
20000572:	6078      	str	r0, [r7, #4]
20000574:	687b      	ldr	r3, [r7, #4]
20000576:	220f      	movs	r2, #15
20000578:	601a      	str	r2, [r3, #0]
2000057a:	f000 fb5b 	bl	20000c34 <FLASH_OB_GetWRP>
2000057e:	4603      	mov	r3, r0
20000580:	461a      	mov	r2, r3
20000582:	687b      	ldr	r3, [r7, #4]
20000584:	609a      	str	r2, [r3, #8]
20000586:	f000 fb61 	bl	20000c4c <FLASH_OB_GetRDP>
2000058a:	4603      	mov	r3, r0
2000058c:	461a      	mov	r2, r3
2000058e:	687b      	ldr	r3, [r7, #4]
20000590:	611a      	str	r2, [r3, #16]
20000592:	f000 fb3f 	bl	20000c14 <FLASH_OB_GetUser>
20000596:	4603      	mov	r3, r0
20000598:	461a      	mov	r2, r3
2000059a:	687b      	ldr	r3, [r7, #4]
2000059c:	761a      	strb	r2, [r3, #24]
2000059e:	f000 fb6b 	bl	20000c78 <FLASH_OB_GetBOR>
200005a2:	4603      	mov	r3, r0
200005a4:	461a      	mov	r2, r3
200005a6:	687b      	ldr	r3, [r7, #4]
200005a8:	615a      	str	r2, [r3, #20]
200005aa:	3708      	adds	r7, #8
200005ac:	46bd      	mov	sp, r7
200005ae:	bd80      	pop	{r7, pc}

200005b0 <HAL_FLASHEx_AdvOBProgram>:
200005b0:	b580      	push	{r7, lr}
200005b2:	b084      	sub	sp, #16
200005b4:	af00      	add	r7, sp, #0
200005b6:	6078      	str	r0, [r7, #4]
200005b8:	2301      	movs	r3, #1
200005ba:	73fb      	strb	r3, [r7, #15]
200005bc:	687b      	ldr	r3, [r7, #4]
200005be:	681b      	ldr	r3, [r3, #0]
200005c0:	f003 0301 	and.w	r3, r3, #1
200005c4:	2b00      	cmp	r3, #0
200005c6:	d022      	beq.n	2000060e <HAL_FLASHEx_AdvOBProgram+0x5e>
200005c8:	687b      	ldr	r3, [r7, #4]
200005ca:	685b      	ldr	r3, [r3, #4]
200005cc:	2b01      	cmp	r3, #1
200005ce:	d10f      	bne.n	200005f0 <HAL_FLASHEx_AdvOBProgram+0x40>
200005d0:	687b      	ldr	r3, [r7, #4]
200005d2:	899b      	ldrh	r3, [r3, #12]
200005d4:	4619      	mov	r1, r3
200005d6:	687b      	ldr	r3, [r7, #4]
200005d8:	89db      	ldrh	r3, [r3, #14]
200005da:	461a      	mov	r2, r3
200005dc:	687b      	ldr	r3, [r7, #4]
200005de:	689b      	ldr	r3, [r3, #8]
200005e0:	4608      	mov	r0, r1
200005e2:	4611      	mov	r1, r2
200005e4:	461a      	mov	r2, r3
200005e6:	f000 fa17 	bl	20000a18 <FLASH_OB_EnablePCROP>
200005ea:	4603      	mov	r3, r0
200005ec:	73fb      	strb	r3, [r7, #15]
200005ee:	e00e      	b.n	2000060e <HAL_FLASHEx_AdvOBProgram+0x5e>
200005f0:	687b      	ldr	r3, [r7, #4]
200005f2:	899b      	ldrh	r3, [r3, #12]
200005f4:	4619      	mov	r1, r3
200005f6:	687b      	ldr	r3, [r7, #4]
200005f8:	89db      	ldrh	r3, [r3, #14]
200005fa:	461a      	mov	r2, r3
200005fc:	687b      	ldr	r3, [r7, #4]
200005fe:	689b      	ldr	r3, [r3, #8]
20000600:	4608      	mov	r0, r1
20000602:	4611      	mov	r1, r2
20000604:	461a      	mov	r2, r3
20000606:	f000 fa4f 	bl	20000aa8 <FLASH_OB_DisablePCROP>
2000060a:	4603      	mov	r3, r0
2000060c:	73fb      	strb	r3, [r7, #15]
2000060e:	687b      	ldr	r3, [r7, #4]
20000610:	681b      	ldr	r3, [r3, #0]
20000612:	f003 0302 	and.w	r3, r3, #2
20000616:	2b00      	cmp	r3, #0
20000618:	d006      	beq.n	20000628 <HAL_FLASHEx_AdvOBProgram+0x78>
2000061a:	687b      	ldr	r3, [r7, #4]
2000061c:	7c1b      	ldrb	r3, [r3, #16]
2000061e:	4618      	mov	r0, r3
20000620:	f000 f9d2 	bl	200009c8 <FLASH_OB_BootConfig>
20000624:	4603      	mov	r3, r0
20000626:	73fb      	strb	r3, [r7, #15]
20000628:	7bfb      	ldrb	r3, [r7, #15]
2000062a:	4618      	mov	r0, r3
2000062c:	3710      	adds	r7, #16
2000062e:	46bd      	mov	sp, r7
20000630:	bd80      	pop	{r7, pc}
20000632:	bf00      	nop

20000634 <HAL_FLASHEx_AdvOBGetConfig>:
20000634:	b480      	push	{r7}
20000636:	b083      	sub	sp, #12
20000638:	af00      	add	r7, sp, #0
2000063a:	6078      	str	r0, [r7, #4]
2000063c:	4b09      	ldr	r3, [pc, #36]	; (20000664 <HAL_FLASHEx_AdvOBGetConfig+0x30>)
2000063e:	881b      	ldrh	r3, [r3, #0]
20000640:	b29a      	uxth	r2, r3
20000642:	687b      	ldr	r3, [r7, #4]
20000644:	819a      	strh	r2, [r3, #12]
20000646:	4b08      	ldr	r3, [pc, #32]	; (20000668 <HAL_FLASHEx_AdvOBGetConfig+0x34>)
20000648:	881b      	ldrh	r3, [r3, #0]
2000064a:	b29a      	uxth	r2, r3
2000064c:	687b      	ldr	r3, [r7, #4]
2000064e:	81da      	strh	r2, [r3, #14]
20000650:	4b06      	ldr	r3, [pc, #24]	; (2000066c <HAL_FLASHEx_AdvOBGetConfig+0x38>)
20000652:	781b      	ldrb	r3, [r3, #0]
20000654:	b2da      	uxtb	r2, r3
20000656:	687b      	ldr	r3, [r7, #4]
20000658:	741a      	strb	r2, [r3, #16]
2000065a:	370c      	adds	r7, #12
2000065c:	46bd      	mov	sp, r7
2000065e:	f85d 7b04 	ldr.w	r7, [sp], #4
20000662:	4770      	bx	lr
20000664:	40023c16 	.word	0x40023c16
20000668:	40023c1a 	.word	0x40023c1a
2000066c:	40023c14 	.word	0x40023c14

20000670 <HAL_FLASHEx_OB_SelectPCROP>:
20000670:	b480      	push	{r7}
20000672:	b083      	sub	sp, #12
20000674:	af00      	add	r7, sp, #0
20000676:	23ff      	movs	r3, #255	; 0xff
20000678:	71fb      	strb	r3, [r7, #7]
2000067a:	4b09      	ldr	r3, [pc, #36]	; (200006a0 <HAL_FLASHEx_OB_SelectPCROP+0x30>)
2000067c:	781b      	ldrb	r3, [r3, #0]
2000067e:	b2db      	uxtb	r3, r3
20000680:	f003 037f 	and.w	r3, r3, #127	; 0x7f
20000684:	71fb      	strb	r3, [r7, #7]
20000686:	4a06      	ldr	r2, [pc, #24]	; (200006a0 <HAL_FLASHEx_OB_SelectPCROP+0x30>)
20000688:	79fb      	ldrb	r3, [r7, #7]
2000068a:	f063 037f 	orn	r3, r3, #127	; 0x7f
2000068e:	b2db      	uxtb	r3, r3
20000690:	7013      	strb	r3, [r2, #0]
20000692:	2300      	movs	r3, #0
20000694:	4618      	mov	r0, r3
20000696:	370c      	adds	r7, #12
20000698:	46bd      	mov	sp, r7
2000069a:	f85d 7b04 	ldr.w	r7, [sp], #4
2000069e:	4770      	bx	lr
200006a0:	40023c17 	.word	0x40023c17

200006a4 <HAL_FLASHEx_OB_DeSelectPCROP>:
200006a4:	b480      	push	{r7}
200006a6:	b083      	sub	sp, #12
200006a8:	af00      	add	r7, sp, #0
200006aa:	23ff      	movs	r3, #255	; 0xff
200006ac:	71fb      	strb	r3, [r7, #7]
200006ae:	4b08      	ldr	r3, [pc, #32]	; (200006d0 <HAL_FLASHEx_OB_DeSelectPCROP+0x2c>)
200006b0:	781b      	ldrb	r3, [r3, #0]
200006b2:	b2db      	uxtb	r3, r3
200006b4:	f003 037f 	and.w	r3, r3, #127	; 0x7f
200006b8:	71fb      	strb	r3, [r7, #7]
200006ba:	4a05      	ldr	r2, [pc, #20]	; (200006d0 <HAL_FLASHEx_OB_DeSelectPCROP+0x2c>)
200006bc:	79fb      	ldrb	r3, [r7, #7]
200006be:	7013      	strb	r3, [r2, #0]
200006c0:	2300      	movs	r3, #0
200006c2:	4618      	mov	r0, r3
200006c4:	370c      	adds	r7, #12
200006c6:	46bd      	mov	sp, r7
200006c8:	f85d 7b04 	ldr.w	r7, [sp], #4
200006cc:	4770      	bx	lr
200006ce:	bf00      	nop
200006d0:	40023c17 	.word	0x40023c17

200006d4 <HAL_FLASHEx_OB_GetBank2WRP>:
200006d4:	b480      	push	{r7}
200006d6:	af00      	add	r7, sp, #0
200006d8:	4b03      	ldr	r3, [pc, #12]	; (200006e8 <HAL_FLASHEx_OB_GetBank2WRP+0x14>)
200006da:	881b      	ldrh	r3, [r3, #0]
200006dc:	b29b      	uxth	r3, r3
200006de:	4618      	mov	r0, r3
200006e0:	46bd      	mov	sp, r7
200006e2:	f85d 7b04 	ldr.w	r7, [sp], #4
200006e6:	4770      	bx	lr
200006e8:	40023c1a 	.word	0x40023c1a

200006ec <FLASH_MassErase>:
200006ec:	b480      	push	{r7}
200006ee:	b085      	sub	sp, #20
200006f0:	af00      	add	r7, sp, #0
200006f2:	4603      	mov	r3, r0
200006f4:	6039      	str	r1, [r7, #0]
200006f6:	71fb      	strb	r3, [r7, #7]
200006f8:	2300      	movs	r3, #0
200006fa:	60fb      	str	r3, [r7, #12]
200006fc:	4a19      	ldr	r2, [pc, #100]	; (20000764 <FLASH_MassErase+0x78>)
200006fe:	4b19      	ldr	r3, [pc, #100]	; (20000764 <FLASH_MassErase+0x78>)
20000700:	691b      	ldr	r3, [r3, #16]
20000702:	f423 7340 	bic.w	r3, r3, #768	; 0x300
20000706:	6113      	str	r3, [r2, #16]
20000708:	4916      	ldr	r1, [pc, #88]	; (20000764 <FLASH_MassErase+0x78>)
2000070a:	4b16      	ldr	r3, [pc, #88]	; (20000764 <FLASH_MassErase+0x78>)
2000070c:	691a      	ldr	r2, [r3, #16]
2000070e:	68fb      	ldr	r3, [r7, #12]
20000710:	4313      	orrs	r3, r2
20000712:	610b      	str	r3, [r1, #16]
20000714:	683b      	ldr	r3, [r7, #0]
20000716:	2b03      	cmp	r3, #3
20000718:	d108      	bne.n	2000072c <FLASH_MassErase+0x40>
2000071a:	4a12      	ldr	r2, [pc, #72]	; (20000764 <FLASH_MassErase+0x78>)
2000071c:	4b11      	ldr	r3, [pc, #68]	; (20000764 <FLASH_MassErase+0x78>)
2000071e:	691b      	ldr	r3, [r3, #16]
20000720:	f443 4300 	orr.w	r3, r3, #32768	; 0x8000
20000724:	f043 0304 	orr.w	r3, r3, #4
20000728:	6113      	str	r3, [r2, #16]
2000072a:	e00f      	b.n	2000074c <FLASH_MassErase+0x60>
2000072c:	683b      	ldr	r3, [r7, #0]
2000072e:	2b01      	cmp	r3, #1
20000730:	d106      	bne.n	20000740 <FLASH_MassErase+0x54>
20000732:	4a0c      	ldr	r2, [pc, #48]	; (20000764 <FLASH_MassErase+0x78>)
20000734:	4b0b      	ldr	r3, [pc, #44]	; (20000764 <FLASH_MassErase+0x78>)
20000736:	691b      	ldr	r3, [r3, #16]
20000738:	f043 0304 	orr.w	r3, r3, #4
2000073c:	6113      	str	r3, [r2, #16]
2000073e:	e005      	b.n	2000074c <FLASH_MassErase+0x60>
20000740:	4a08      	ldr	r2, [pc, #32]	; (20000764 <FLASH_MassErase+0x78>)
20000742:	4b08      	ldr	r3, [pc, #32]	; (20000764 <FLASH_MassErase+0x78>)
20000744:	691b      	ldr	r3, [r3, #16]
20000746:	f443 4300 	orr.w	r3, r3, #32768	; 0x8000
2000074a:	6113      	str	r3, [r2, #16]
2000074c:	4a05      	ldr	r2, [pc, #20]	; (20000764 <FLASH_MassErase+0x78>)
2000074e:	4b05      	ldr	r3, [pc, #20]	; (20000764 <FLASH_MassErase+0x78>)
20000750:	691b      	ldr	r3, [r3, #16]
20000752:	f443 3380 	orr.w	r3, r3, #65536	; 0x10000
20000756:	6113      	str	r3, [r2, #16]
20000758:	3714      	adds	r7, #20
2000075a:	46bd      	mov	sp, r7
2000075c:	f85d 7b04 	ldr.w	r7, [sp], #4
20000760:	4770      	bx	lr
20000762:	bf00      	nop
20000764:	40023c00 	.word	0x40023c00

20000768 <FLASH_Erase_Sector>:
20000768:	b480      	push	{r7}
2000076a:	b089      	sub	sp, #36	; 0x24
2000076c:	af00      	add	r7, sp, #0
2000076e:	6078      	str	r0, [r7, #4]
20000770:	460b      	mov	r3, r1
20000772:	70fb      	strb	r3, [r7, #3]
20000774:	2300      	movs	r3, #0
20000776:	61fb      	str	r3, [r7, #28]
20000778:	78fb      	ldrb	r3, [r7, #3]
2000077a:	2b00      	cmp	r3, #0
2000077c:	d102      	bne.n	20000784 <FLASH_Erase_Sector+0x1c>
2000077e:	2300      	movs	r3, #0
20000780:	61fb      	str	r3, [r7, #28]
20000782:	e010      	b.n	200007a6 <FLASH_Erase_Sector+0x3e>
20000784:	78fb      	ldrb	r3, [r7, #3]
20000786:	2b01      	cmp	r3, #1
20000788:	d103      	bne.n	20000792 <FLASH_Erase_Sector+0x2a>
2000078a:	f44f 7380 	mov.w	r3, #256	; 0x100
2000078e:	61fb      	str	r3, [r7, #28]
20000790:	e009      	b.n	200007a6 <FLASH_Erase_Sector+0x3e>
20000792:	78fb      	ldrb	r3, [r7, #3]
20000794:	2b02      	cmp	r3, #2
20000796:	d103      	bne.n	200007a0 <FLASH_Erase_Sector+0x38>
20000798:	f44f 7300 	mov.w	r3, #512	; 0x200
2000079c:	61fb      	str	r3, [r7, #28]
2000079e:	e002      	b.n	200007a6 <FLASH_Erase_Sector+0x3e>
200007a0:	f44f 7340 	mov.w	r3, #768	; 0x300
200007a4:	61fb      	str	r3, [r7, #28]
200007a6:	687b      	ldr	r3, [r7, #4]
200007a8:	2b0b      	cmp	r3, #11
200007aa:	d902      	bls.n	200007b2 <FLASH_Erase_Sector+0x4a>
200007ac:	687b      	ldr	r3, [r7, #4]
200007ae:	3304      	adds	r3, #4
200007b0:	607b      	str	r3, [r7, #4]
200007b2:	4a1a      	ldr	r2, [pc, #104]	; (2000081c <FLASH_Erase_Sector+0xb4>)
200007b4:	4b19      	ldr	r3, [pc, #100]	; (2000081c <FLASH_Erase_Sector+0xb4>)
200007b6:	691b      	ldr	r3, [r3, #16]
200007b8:	f423 7340 	bic.w	r3, r3, #768	; 0x300
200007bc:	6113      	str	r3, [r2, #16]
200007be:	4917      	ldr	r1, [pc, #92]	; (2000081c <FLASH_Erase_Sector+0xb4>)
200007c0:	4b16      	ldr	r3, [pc, #88]	; (2000081c <FLASH_Erase_Sector+0xb4>)
200007c2:	691a      	ldr	r2, [r3, #16]
200007c4:	69fb      	ldr	r3, [r7, #28]
200007c6:	4313      	orrs	r3, r2
200007c8:	610b      	str	r3, [r1, #16]
200007ca:	4a14      	ldr	r2, [pc, #80]	; (2000081c <FLASH_Erase_Sector+0xb4>)
200007cc:	4b13      	ldr	r3, [pc, #76]	; (2000081c <FLASH_Erase_Sector+0xb4>)
200007ce:	691b      	ldr	r3, [r3, #16]
200007d0:	f023 03f8 	bic.w	r3, r3, #248	; 0xf8
200007d4:	6113      	str	r3, [r2, #16]
200007d6:	23f8      	movs	r3, #248	; 0xf8
200007d8:	61bb      	str	r3, [r7, #24]
200007da:	69bb      	ldr	r3, [r7, #24]
200007dc:	fa93 f3a3 	rbit	r3, r3
200007e0:	617b      	str	r3, [r7, #20]
200007e2:	697b      	ldr	r3, [r7, #20]
200007e4:	613b      	str	r3, [r7, #16]
200007e6:	693b      	ldr	r3, [r7, #16]
200007e8:	fab3 f383 	clz	r3, r3
200007ec:	60fb      	str	r3, [r7, #12]
200007ee:	68fb      	ldr	r3, [r7, #12]
200007f0:	b2db      	uxtb	r3, r3
200007f2:	461a      	mov	r2, r3
200007f4:	687b      	ldr	r3, [r7, #4]
200007f6:	4093      	lsls	r3, r2
200007f8:	f043 0302 	orr.w	r3, r3, #2
200007fc:	4907      	ldr	r1, [pc, #28]	; (2000081c <FLASH_Erase_Sector+0xb4>)
200007fe:	4a07      	ldr	r2, [pc, #28]	; (2000081c <FLASH_Erase_Sector+0xb4>)
20000800:	6912      	ldr	r2, [r2, #16]
20000802:	4313      	orrs	r3, r2
20000804:	610b      	str	r3, [r1, #16]
20000806:	4a05      	ldr	r2, [pc, #20]	; (2000081c <FLASH_Erase_Sector+0xb4>)
20000808:	4b04      	ldr	r3, [pc, #16]	; (2000081c <FLASH_Erase_Sector+0xb4>)
2000080a:	691b      	ldr	r3, [r3, #16]
2000080c:	f443 3380 	orr.w	r3, r3, #65536	; 0x10000
20000810:	6113      	str	r3, [r2, #16]
20000812:	3724      	adds	r7, #36	; 0x24
20000814:	46bd      	mov	sp, r7
20000816:	f85d 7b04 	ldr.w	r7, [sp], #4
2000081a:	4770      	bx	lr
2000081c:	40023c00 	.word	0x40023c00

20000820 <FLASH_OB_EnableWRP>:
20000820:	b580      	push	{r7, lr}
20000822:	b084      	sub	sp, #16
20000824:	af00      	add	r7, sp, #0
20000826:	6078      	str	r0, [r7, #4]
20000828:	6039      	str	r1, [r7, #0]
2000082a:	2300      	movs	r3, #0
2000082c:	73fb      	strb	r3, [r7, #15]
2000082e:	f24c 3050 	movw	r0, #50000	; 0xc350
20000832:	f003 fa1b 	bl	20003c6c <FLASH_WaitForLastOperation>
20000836:	4603      	mov	r3, r0
20000838:	73fb      	strb	r3, [r7, #15]
2000083a:	7bfb      	ldrb	r3, [r7, #15]
2000083c:	2b00      	cmp	r3, #0
2000083e:	d152      	bne.n	200008e6 <FLASH_OB_EnableWRP+0xc6>
20000840:	687b      	ldr	r3, [r7, #4]
20000842:	4a2b      	ldr	r2, [pc, #172]	; (200008f0 <FLASH_OB_EnableWRP+0xd0>)
20000844:	4293      	cmp	r3, r2
20000846:	d105      	bne.n	20000854 <FLASH_OB_EnableWRP+0x34>
20000848:	683b      	ldr	r3, [r7, #0]
2000084a:	2b01      	cmp	r3, #1
2000084c:	d006      	beq.n	2000085c <FLASH_OB_EnableWRP+0x3c>
2000084e:	683b      	ldr	r3, [r7, #0]
20000850:	2b03      	cmp	r3, #3
20000852:	d003      	beq.n	2000085c <FLASH_OB_EnableWRP+0x3c>
20000854:	687b      	ldr	r3, [r7, #4]
20000856:	f5b3 5f80 	cmp.w	r3, #4096	; 0x1000
2000085a:	d21c      	bcs.n	20000896 <FLASH_OB_EnableWRP+0x76>
2000085c:	687b      	ldr	r3, [r7, #4]
2000085e:	4a24      	ldr	r2, [pc, #144]	; (200008f0 <FLASH_OB_EnableWRP+0xd0>)
20000860:	4293      	cmp	r3, r2
20000862:	d10c      	bne.n	2000087e <FLASH_OB_EnableWRP+0x5e>
20000864:	4923      	ldr	r1, [pc, #140]	; (200008f4 <FLASH_OB_EnableWRP+0xd4>)
20000866:	4b23      	ldr	r3, [pc, #140]	; (200008f4 <FLASH_OB_EnableWRP+0xd4>)
20000868:	881b      	ldrh	r3, [r3, #0]
2000086a:	b29a      	uxth	r2, r3
2000086c:	687b      	ldr	r3, [r7, #4]
2000086e:	0b1b      	lsrs	r3, r3, #12
20000870:	b29b      	uxth	r3, r3
20000872:	43db      	mvns	r3, r3
20000874:	b29b      	uxth	r3, r3
20000876:	4013      	ands	r3, r2
20000878:	b29b      	uxth	r3, r3
2000087a:	800b      	strh	r3, [r1, #0]
2000087c:	e017      	b.n	200008ae <FLASH_OB_EnableWRP+0x8e>
2000087e:	491d      	ldr	r1, [pc, #116]	; (200008f4 <FLASH_OB_EnableWRP+0xd4>)
20000880:	4b1c      	ldr	r3, [pc, #112]	; (200008f4 <FLASH_OB_EnableWRP+0xd4>)
20000882:	881b      	ldrh	r3, [r3, #0]
20000884:	b29a      	uxth	r2, r3
20000886:	687b      	ldr	r3, [r7, #4]
20000888:	b29b      	uxth	r3, r3
2000088a:	43db      	mvns	r3, r3
2000088c:	b29b      	uxth	r3, r3
2000088e:	4013      	ands	r3, r2
20000890:	b29b      	uxth	r3, r3
20000892:	800b      	strh	r3, [r1, #0]
20000894:	e00b      	b.n	200008ae <FLASH_OB_EnableWRP+0x8e>
20000896:	4918      	ldr	r1, [pc, #96]	; (200008f8 <FLASH_OB_EnableWRP+0xd8>)
20000898:	4b17      	ldr	r3, [pc, #92]	; (200008f8 <FLASH_OB_EnableWRP+0xd8>)
2000089a:	881b      	ldrh	r3, [r3, #0]
2000089c:	b29a      	uxth	r2, r3
2000089e:	687b      	ldr	r3, [r7, #4]
200008a0:	0b1b      	lsrs	r3, r3, #12
200008a2:	b29b      	uxth	r3, r3
200008a4:	43db      	mvns	r3, r3
200008a6:	b29b      	uxth	r3, r3
200008a8:	4013      	ands	r3, r2
200008aa:	b29b      	uxth	r3, r3
200008ac:	800b      	strh	r3, [r1, #0]
200008ae:	687b      	ldr	r3, [r7, #4]
200008b0:	4a0f      	ldr	r2, [pc, #60]	; (200008f0 <FLASH_OB_EnableWRP+0xd0>)
200008b2:	4293      	cmp	r3, r2
200008b4:	d117      	bne.n	200008e6 <FLASH_OB_EnableWRP+0xc6>
200008b6:	683b      	ldr	r3, [r7, #0]
200008b8:	2b03      	cmp	r3, #3
200008ba:	d114      	bne.n	200008e6 <FLASH_OB_EnableWRP+0xc6>
200008bc:	f24c 3050 	movw	r0, #50000	; 0xc350
200008c0:	f003 f9d4 	bl	20003c6c <FLASH_WaitForLastOperation>
200008c4:	4603      	mov	r3, r0
200008c6:	73fb      	strb	r3, [r7, #15]
200008c8:	7bfb      	ldrb	r3, [r7, #15]
200008ca:	2b00      	cmp	r3, #0
200008cc:	d10b      	bne.n	200008e6 <FLASH_OB_EnableWRP+0xc6>
200008ce:	490a      	ldr	r1, [pc, #40]	; (200008f8 <FLASH_OB_EnableWRP+0xd8>)
200008d0:	4b09      	ldr	r3, [pc, #36]	; (200008f8 <FLASH_OB_EnableWRP+0xd8>)
200008d2:	881b      	ldrh	r3, [r3, #0]
200008d4:	b29a      	uxth	r2, r3
200008d6:	687b      	ldr	r3, [r7, #4]
200008d8:	0b1b      	lsrs	r3, r3, #12
200008da:	b29b      	uxth	r3, r3
200008dc:	43db      	mvns	r3, r3
200008de:	b29b      	uxth	r3, r3
200008e0:	4013      	ands	r3, r2
200008e2:	b29b      	uxth	r3, r3
200008e4:	800b      	strh	r3, [r1, #0]
200008e6:	7bfb      	ldrb	r3, [r7, #15]
200008e8:	4618      	mov	r0, r3
200008ea:	3710      	adds	r7, #16
200008ec:	46bd      	mov	sp, r7
200008ee:	bd80      	pop	{r7, pc}
200008f0:	00fff000 	.word	0x00fff000
200008f4:	40023c16 	.word	0x40023c16
200008f8:	40023c1a 	.word	0x40023c1a

200008fc <FLASH_OB_DisableWRP>:
200008fc:	b580      	push	{r7, lr}
200008fe:	b084      	sub	sp, #16
20000900:	af00      	add	r7, sp, #0
20000902:	6078      	str	r0, [r7, #4]
20000904:	6039      	str	r1, [r7, #0]
20000906:	2300      	movs	r3, #0
20000908:	73fb      	strb	r3, [r7, #15]
2000090a:	f24c 3050 	movw	r0, #50000	; 0xc350
2000090e:	f003 f9ad 	bl	20003c6c <FLASH_WaitForLastOperation>
20000912:	4603      	mov	r3, r0
20000914:	73fb      	strb	r3, [r7, #15]
20000916:	7bfb      	ldrb	r3, [r7, #15]
20000918:	2b00      	cmp	r3, #0
2000091a:	d14a      	bne.n	200009b2 <FLASH_OB_DisableWRP+0xb6>
2000091c:	687b      	ldr	r3, [r7, #4]
2000091e:	4a27      	ldr	r2, [pc, #156]	; (200009bc <FLASH_OB_DisableWRP+0xc0>)
20000920:	4293      	cmp	r3, r2
20000922:	d105      	bne.n	20000930 <FLASH_OB_DisableWRP+0x34>
20000924:	683b      	ldr	r3, [r7, #0]
20000926:	2b01      	cmp	r3, #1
20000928:	d006      	beq.n	20000938 <FLASH_OB_DisableWRP+0x3c>
2000092a:	683b      	ldr	r3, [r7, #0]
2000092c:	2b03      	cmp	r3, #3
2000092e:	d003      	beq.n	20000938 <FLASH_OB_DisableWRP+0x3c>
20000930:	687b      	ldr	r3, [r7, #4]
20000932:	f5b3 5f80 	cmp.w	r3, #4096	; 0x1000
20000936:	d218      	bcs.n	2000096a <FLASH_OB_DisableWRP+0x6e>
20000938:	687b      	ldr	r3, [r7, #4]
2000093a:	4a20      	ldr	r2, [pc, #128]	; (200009bc <FLASH_OB_DisableWRP+0xc0>)
2000093c:	4293      	cmp	r3, r2
2000093e:	d10a      	bne.n	20000956 <FLASH_OB_DisableWRP+0x5a>
20000940:	491f      	ldr	r1, [pc, #124]	; (200009c0 <FLASH_OB_DisableWRP+0xc4>)
20000942:	4b1f      	ldr	r3, [pc, #124]	; (200009c0 <FLASH_OB_DisableWRP+0xc4>)
20000944:	881b      	ldrh	r3, [r3, #0]
20000946:	b29a      	uxth	r2, r3
20000948:	687b      	ldr	r3, [r7, #4]
2000094a:	0b1b      	lsrs	r3, r3, #12
2000094c:	b29b      	uxth	r3, r3
2000094e:	4313      	orrs	r3, r2
20000950:	b29b      	uxth	r3, r3
20000952:	800b      	strh	r3, [r1, #0]
20000954:	e013      	b.n	2000097e <FLASH_OB_DisableWRP+0x82>
20000956:	491a      	ldr	r1, [pc, #104]	; (200009c0 <FLASH_OB_DisableWRP+0xc4>)
20000958:	4b19      	ldr	r3, [pc, #100]	; (200009c0 <FLASH_OB_DisableWRP+0xc4>)
2000095a:	881b      	ldrh	r3, [r3, #0]
2000095c:	b29a      	uxth	r2, r3
2000095e:	687b      	ldr	r3, [r7, #4]
20000960:	b29b      	uxth	r3, r3
20000962:	4313      	orrs	r3, r2
20000964:	b29b      	uxth	r3, r3
20000966:	800b      	strh	r3, [r1, #0]
20000968:	e009      	b.n	2000097e <FLASH_OB_DisableWRP+0x82>
2000096a:	4916      	ldr	r1, [pc, #88]	; (200009c4 <FLASH_OB_DisableWRP+0xc8>)
2000096c:	4b15      	ldr	r3, [pc, #84]	; (200009c4 <FLASH_OB_DisableWRP+0xc8>)
2000096e:	881b      	ldrh	r3, [r3, #0]
20000970:	b29a      	uxth	r2, r3
20000972:	687b      	ldr	r3, [r7, #4]
20000974:	0b1b      	lsrs	r3, r3, #12
20000976:	b29b      	uxth	r3, r3
20000978:	4313      	orrs	r3, r2
2000097a:	b29b      	uxth	r3, r3
2000097c:	800b      	strh	r3, [r1, #0]
2000097e:	687b      	ldr	r3, [r7, #4]
20000980:	4a0e      	ldr	r2, [pc, #56]	; (200009bc <FLASH_OB_DisableWRP+0xc0>)
20000982:	4293      	cmp	r3, r2
20000984:	d115      	bne.n	200009b2 <FLASH_OB_DisableWRP+0xb6>
20000986:	683b      	ldr	r3, [r7, #0]
20000988:	2b03      	cmp	r3, #3
2000098a:	d112      	bne.n	200009b2 <FLASH_OB_DisableWRP+0xb6>
2000098c:	f24c 3050 	movw	r0, #50000	; 0xc350
20000990:	f003 f96c 	bl	20003c6c <FLASH_WaitForLastOperation>
20000994:	4603      	mov	r3, r0
20000996:	73fb      	strb	r3, [r7, #15]
20000998:	7bfb      	ldrb	r3, [r7, #15]
2000099a:	2b00      	cmp	r3, #0
2000099c:	d109      	bne.n	200009b2 <FLASH_OB_DisableWRP+0xb6>
2000099e:	4909      	ldr	r1, [pc, #36]	; (200009c4 <FLASH_OB_DisableWRP+0xc8>)
200009a0:	4b08      	ldr	r3, [pc, #32]	; (200009c4 <FLASH_OB_DisableWRP+0xc8>)
200009a2:	881b      	ldrh	r3, [r3, #0]
200009a4:	b29a      	uxth	r2, r3
200009a6:	687b      	ldr	r3, [r7, #4]
200009a8:	0b1b      	lsrs	r3, r3, #12
200009aa:	b29b      	uxth	r3, r3
200009ac:	4313      	orrs	r3, r2
200009ae:	b29b      	uxth	r3, r3
200009b0:	800b      	strh	r3, [r1, #0]
200009b2:	7bfb      	ldrb	r3, [r7, #15]
200009b4:	4618      	mov	r0, r3
200009b6:	3710      	adds	r7, #16
200009b8:	46bd      	mov	sp, r7
200009ba:	bd80      	pop	{r7, pc}
200009bc:	00fff000 	.word	0x00fff000
200009c0:	40023c16 	.word	0x40023c16
200009c4:	40023c1a 	.word	0x40023c1a

200009c8 <FLASH_OB_BootConfig>:
200009c8:	b580      	push	{r7, lr}
200009ca:	b084      	sub	sp, #16
200009cc:	af00      	add	r7, sp, #0
200009ce:	4603      	mov	r3, r0
200009d0:	71fb      	strb	r3, [r7, #7]
200009d2:	2300      	movs	r3, #0
200009d4:	73fb      	strb	r3, [r7, #15]
200009d6:	f24c 3050 	movw	r0, #50000	; 0xc350
200009da:	f003 f947 	bl	20003c6c <FLASH_WaitForLastOperation>
200009de:	4603      	mov	r3, r0
200009e0:	73fb      	strb	r3, [r7, #15]
200009e2:	7bfb      	ldrb	r3, [r7, #15]
200009e4:	2b00      	cmp	r3, #0
200009e6:	d10f      	bne.n	20000a08 <FLASH_OB_BootConfig+0x40>
200009e8:	4a0a      	ldr	r2, [pc, #40]	; (20000a14 <FLASH_OB_BootConfig+0x4c>)
200009ea:	4b0a      	ldr	r3, [pc, #40]	; (20000a14 <FLASH_OB_BootConfig+0x4c>)
200009ec:	781b      	ldrb	r3, [r3, #0]
200009ee:	b2db      	uxtb	r3, r3
200009f0:	f023 0310 	bic.w	r3, r3, #16
200009f4:	b2db      	uxtb	r3, r3
200009f6:	7013      	strb	r3, [r2, #0]
200009f8:	4906      	ldr	r1, [pc, #24]	; (20000a14 <FLASH_OB_BootConfig+0x4c>)
200009fa:	4b06      	ldr	r3, [pc, #24]	; (20000a14 <FLASH_OB_BootConfig+0x4c>)
200009fc:	781b      	ldrb	r3, [r3, #0]
200009fe:	b2da      	uxtb	r2, r3
20000a00:	79fb      	ldrb	r3, [r7, #7]
20000a02:	4313      	orrs	r3, r2
20000a04:	b2db      	uxtb	r3, r3
20000a06:	700b      	strb	r3, [r1, #0]
20000a08:	7bfb      	ldrb	r3, [r7, #15]
20000a0a:	4618      	mov	r0, r3
20000a0c:	3710      	adds	r7, #16
20000a0e:	46bd      	mov	sp, r7
20000a10:	bd80      	pop	{r7, pc}
20000a12:	bf00      	nop
20000a14:	40023c14 	.word	0x40023c14

20000a18 <FLASH_OB_EnablePCROP>:
20000a18:	b580      	push	{r7, lr}
20000a1a:	b086      	sub	sp, #24
20000a1c:	af00      	add	r7, sp, #0
20000a1e:	60f8      	str	r0, [r7, #12]
20000a20:	60b9      	str	r1, [r7, #8]
20000a22:	607a      	str	r2, [r7, #4]
20000a24:	2300      	movs	r3, #0
20000a26:	75fb      	strb	r3, [r7, #23]
20000a28:	f24c 3050 	movw	r0, #50000	; 0xc350
20000a2c:	f003 f91e 	bl	20003c6c <FLASH_WaitForLastOperation>
20000a30:	4603      	mov	r3, r0
20000a32:	75fb      	strb	r3, [r7, #23]
20000a34:	7dfb      	ldrb	r3, [r7, #23]
20000a36:	2b00      	cmp	r3, #0
20000a38:	d12d      	bne.n	20000a96 <FLASH_OB_EnablePCROP+0x7e>
20000a3a:	687b      	ldr	r3, [r7, #4]
20000a3c:	2b01      	cmp	r3, #1
20000a3e:	d002      	beq.n	20000a46 <FLASH_OB_EnablePCROP+0x2e>
20000a40:	687b      	ldr	r3, [r7, #4]
20000a42:	2b03      	cmp	r3, #3
20000a44:	d109      	bne.n	20000a5a <FLASH_OB_EnablePCROP+0x42>
20000a46:	4916      	ldr	r1, [pc, #88]	; (20000aa0 <FLASH_OB_EnablePCROP+0x88>)
20000a48:	4b15      	ldr	r3, [pc, #84]	; (20000aa0 <FLASH_OB_EnablePCROP+0x88>)
20000a4a:	881b      	ldrh	r3, [r3, #0]
20000a4c:	b29a      	uxth	r2, r3
20000a4e:	68fb      	ldr	r3, [r7, #12]
20000a50:	b29b      	uxth	r3, r3
20000a52:	4313      	orrs	r3, r2
20000a54:	b29b      	uxth	r3, r3
20000a56:	800b      	strh	r3, [r1, #0]
20000a58:	e008      	b.n	20000a6c <FLASH_OB_EnablePCROP+0x54>
20000a5a:	4912      	ldr	r1, [pc, #72]	; (20000aa4 <FLASH_OB_EnablePCROP+0x8c>)
20000a5c:	4b11      	ldr	r3, [pc, #68]	; (20000aa4 <FLASH_OB_EnablePCROP+0x8c>)
20000a5e:	881b      	ldrh	r3, [r3, #0]
20000a60:	b29a      	uxth	r2, r3
20000a62:	68bb      	ldr	r3, [r7, #8]
20000a64:	b29b      	uxth	r3, r3
20000a66:	4313      	orrs	r3, r2
20000a68:	b29b      	uxth	r3, r3
20000a6a:	800b      	strh	r3, [r1, #0]
20000a6c:	687b      	ldr	r3, [r7, #4]
20000a6e:	2b03      	cmp	r3, #3
20000a70:	d111      	bne.n	20000a96 <FLASH_OB_EnablePCROP+0x7e>
20000a72:	f24c 3050 	movw	r0, #50000	; 0xc350
20000a76:	f003 f8f9 	bl	20003c6c <FLASH_WaitForLastOperation>
20000a7a:	4603      	mov	r3, r0
20000a7c:	75fb      	strb	r3, [r7, #23]
20000a7e:	7dfb      	ldrb	r3, [r7, #23]
20000a80:	2b00      	cmp	r3, #0
20000a82:	d108      	bne.n	20000a96 <FLASH_OB_EnablePCROP+0x7e>
20000a84:	4907      	ldr	r1, [pc, #28]	; (20000aa4 <FLASH_OB_EnablePCROP+0x8c>)
20000a86:	4b07      	ldr	r3, [pc, #28]	; (20000aa4 <FLASH_OB_EnablePCROP+0x8c>)
20000a88:	881b      	ldrh	r3, [r3, #0]
20000a8a:	b29a      	uxth	r2, r3
20000a8c:	68bb      	ldr	r3, [r7, #8]
20000a8e:	b29b      	uxth	r3, r3
20000a90:	4313      	orrs	r3, r2
20000a92:	b29b      	uxth	r3, r3
20000a94:	800b      	strh	r3, [r1, #0]
20000a96:	7dfb      	ldrb	r3, [r7, #23]
20000a98:	4618      	mov	r0, r3
20000a9a:	3718      	adds	r7, #24
20000a9c:	46bd      	mov	sp, r7
20000a9e:	bd80      	pop	{r7, pc}
20000aa0:	40023c16 	.word	0x40023c16
20000aa4:	40023c1a 	.word	0x40023c1a

20000aa8 <FLASH_OB_DisablePCROP>:
20000aa8:	b580      	push	{r7, lr}
20000aaa:	b086      	sub	sp, #24
20000aac:	af00      	add	r7, sp, #0
20000aae:	60f8      	str	r0, [r7, #12]
20000ab0:	60b9      	str	r1, [r7, #8]
20000ab2:	607a      	str	r2, [r7, #4]
20000ab4:	2300      	movs	r3, #0
20000ab6:	75fb      	strb	r3, [r7, #23]
20000ab8:	f24c 3050 	movw	r0, #50000	; 0xc350
20000abc:	f003 f8d6 	bl	20003c6c <FLASH_WaitForLastOperation>
20000ac0:	4603      	mov	r3, r0
20000ac2:	75fb      	strb	r3, [r7, #23]
20000ac4:	7dfb      	ldrb	r3, [r7, #23]
20000ac6:	2b00      	cmp	r3, #0
20000ac8:	d133      	bne.n	20000b32 <FLASH_OB_DisablePCROP+0x8a>
20000aca:	687b      	ldr	r3, [r7, #4]
20000acc:	2b01      	cmp	r3, #1
20000ace:	d002      	beq.n	20000ad6 <FLASH_OB_DisablePCROP+0x2e>
20000ad0:	687b      	ldr	r3, [r7, #4]
20000ad2:	2b03      	cmp	r3, #3
20000ad4:	d10b      	bne.n	20000aee <FLASH_OB_DisablePCROP+0x46>
20000ad6:	4919      	ldr	r1, [pc, #100]	; (20000b3c <FLASH_OB_DisablePCROP+0x94>)
20000ad8:	4b18      	ldr	r3, [pc, #96]	; (20000b3c <FLASH_OB_DisablePCROP+0x94>)
20000ada:	881b      	ldrh	r3, [r3, #0]
20000adc:	b29a      	uxth	r2, r3
20000ade:	68fb      	ldr	r3, [r7, #12]
20000ae0:	b29b      	uxth	r3, r3
20000ae2:	43db      	mvns	r3, r3
20000ae4:	b29b      	uxth	r3, r3
20000ae6:	4013      	ands	r3, r2
20000ae8:	b29b      	uxth	r3, r3
20000aea:	800b      	strh	r3, [r1, #0]
20000aec:	e00a      	b.n	20000b04 <FLASH_OB_DisablePCROP+0x5c>
20000aee:	4914      	ldr	r1, [pc, #80]	; (20000b40 <FLASH_OB_DisablePCROP+0x98>)
20000af0:	4b13      	ldr	r3, [pc, #76]	; (20000b40 <FLASH_OB_DisablePCROP+0x98>)
20000af2:	881b      	ldrh	r3, [r3, #0]
20000af4:	b29a      	uxth	r2, r3
20000af6:	68bb      	ldr	r3, [r7, #8]
20000af8:	b29b      	uxth	r3, r3
20000afa:	43db      	mvns	r3, r3
20000afc:	b29b      	uxth	r3, r3
20000afe:	4013      	ands	r3, r2
20000b00:	b29b      	uxth	r3, r3
20000b02:	800b      	strh	r3, [r1, #0]
20000b04:	687b      	ldr	r3, [r7, #4]
20000b06:	2b03      	cmp	r3, #3
20000b08:	d113      	bne.n	20000b32 <FLASH_OB_DisablePCROP+0x8a>
20000b0a:	f24c 3050 	movw	r0, #50000	; 0xc350
20000b0e:	f003 f8ad 	bl	20003c6c <FLASH_WaitForLastOperation>
20000b12:	4603      	mov	r3, r0
20000b14:	75fb      	strb	r3, [r7, #23]
20000b16:	7dfb      	ldrb	r3, [r7, #23]
20000b18:	2b00      	cmp	r3, #0
20000b1a:	d10a      	bne.n	20000b32 <FLASH_OB_DisablePCROP+0x8a>
20000b1c:	4908      	ldr	r1, [pc, #32]	; (20000b40 <FLASH_OB_DisablePCROP+0x98>)
20000b1e:	4b08      	ldr	r3, [pc, #32]	; (20000b40 <FLASH_OB_DisablePCROP+0x98>)
20000b20:	881b      	ldrh	r3, [r3, #0]
20000b22:	b29a      	uxth	r2, r3
20000b24:	68bb      	ldr	r3, [r7, #8]
20000b26:	b29b      	uxth	r3, r3
20000b28:	43db      	mvns	r3, r3
20000b2a:	b29b      	uxth	r3, r3
20000b2c:	4013      	ands	r3, r2
20000b2e:	b29b      	uxth	r3, r3
20000b30:	800b      	strh	r3, [r1, #0]
20000b32:	7dfb      	ldrb	r3, [r7, #23]
20000b34:	4618      	mov	r0, r3
20000b36:	3718      	adds	r7, #24
20000b38:	46bd      	mov	sp, r7
20000b3a:	bd80      	pop	{r7, pc}
20000b3c:	40023c16 	.word	0x40023c16
20000b40:	40023c1a 	.word	0x40023c1a

20000b44 <FLASH_OB_RDP_LevelConfig>:
20000b44:	b580      	push	{r7, lr}
20000b46:	b084      	sub	sp, #16
20000b48:	af00      	add	r7, sp, #0
20000b4a:	4603      	mov	r3, r0
20000b4c:	71fb      	strb	r3, [r7, #7]
20000b4e:	2300      	movs	r3, #0
20000b50:	73fb      	strb	r3, [r7, #15]
20000b52:	f24c 3050 	movw	r0, #50000	; 0xc350
20000b56:	f003 f889 	bl	20003c6c <FLASH_WaitForLastOperation>
20000b5a:	4603      	mov	r3, r0
20000b5c:	73fb      	strb	r3, [r7, #15]
20000b5e:	7bfb      	ldrb	r3, [r7, #15]
20000b60:	2b00      	cmp	r3, #0
20000b62:	d102      	bne.n	20000b6a <FLASH_OB_RDP_LevelConfig+0x26>
20000b64:	4a03      	ldr	r2, [pc, #12]	; (20000b74 <FLASH_OB_RDP_LevelConfig+0x30>)
20000b66:	79fb      	ldrb	r3, [r7, #7]
20000b68:	7013      	strb	r3, [r2, #0]
20000b6a:	7bfb      	ldrb	r3, [r7, #15]
20000b6c:	4618      	mov	r0, r3
20000b6e:	3710      	adds	r7, #16
20000b70:	46bd      	mov	sp, r7
20000b72:	bd80      	pop	{r7, pc}
20000b74:	40023c15 	.word	0x40023c15

20000b78 <FLASH_OB_UserConfig>:
20000b78:	b580      	push	{r7, lr}
20000b7a:	b084      	sub	sp, #16
20000b7c:	af00      	add	r7, sp, #0
20000b7e:	4603      	mov	r3, r0
20000b80:	71fb      	strb	r3, [r7, #7]
20000b82:	460b      	mov	r3, r1
20000b84:	71bb      	strb	r3, [r7, #6]
20000b86:	4613      	mov	r3, r2
20000b88:	717b      	strb	r3, [r7, #5]
20000b8a:	23ff      	movs	r3, #255	; 0xff
20000b8c:	73fb      	strb	r3, [r7, #15]
20000b8e:	2300      	movs	r3, #0
20000b90:	73bb      	strb	r3, [r7, #14]
20000b92:	f24c 3050 	movw	r0, #50000	; 0xc350
20000b96:	f003 f869 	bl	20003c6c <FLASH_WaitForLastOperation>
20000b9a:	4603      	mov	r3, r0
20000b9c:	73bb      	strb	r3, [r7, #14]
20000b9e:	7bbb      	ldrb	r3, [r7, #14]
20000ba0:	2b00      	cmp	r3, #0
20000ba2:	d111      	bne.n	20000bc8 <FLASH_OB_UserConfig+0x50>
20000ba4:	4b0b      	ldr	r3, [pc, #44]	; (20000bd4 <FLASH_OB_UserConfig+0x5c>)
20000ba6:	781b      	ldrb	r3, [r3, #0]
20000ba8:	b2db      	uxtb	r3, r3
20000baa:	f003 031f 	and.w	r3, r3, #31
20000bae:	73fb      	strb	r3, [r7, #15]
20000bb0:	4908      	ldr	r1, [pc, #32]	; (20000bd4 <FLASH_OB_UserConfig+0x5c>)
20000bb2:	79ba      	ldrb	r2, [r7, #6]
20000bb4:	7bfb      	ldrb	r3, [r7, #15]
20000bb6:	4313      	orrs	r3, r2
20000bb8:	b2da      	uxtb	r2, r3
20000bba:	797b      	ldrb	r3, [r7, #5]
20000bbc:	4313      	orrs	r3, r2
20000bbe:	b2da      	uxtb	r2, r3
20000bc0:	79fb      	ldrb	r3, [r7, #7]
20000bc2:	4313      	orrs	r3, r2
20000bc4:	b2db      	uxtb	r3, r3
20000bc6:	700b      	strb	r3, [r1, #0]
20000bc8:	7bbb      	ldrb	r3, [r7, #14]
20000bca:	4618      	mov	r0, r3
20000bcc:	3710      	adds	r7, #16
20000bce:	46bd      	mov	sp, r7
20000bd0:	bd80      	pop	{r7, pc}
20000bd2:	bf00      	nop
20000bd4:	40023c14 	.word	0x40023c14

20000bd8 <FLASH_OB_BOR_LevelConfig>:
20000bd8:	b480      	push	{r7}
20000bda:	b083      	sub	sp, #12
20000bdc:	af00      	add	r7, sp, #0
20000bde:	4603      	mov	r3, r0
20000be0:	71fb      	strb	r3, [r7, #7]
20000be2:	4a0b      	ldr	r2, [pc, #44]	; (20000c10 <FLASH_OB_BOR_LevelConfig+0x38>)
20000be4:	4b0a      	ldr	r3, [pc, #40]	; (20000c10 <FLASH_OB_BOR_LevelConfig+0x38>)
20000be6:	781b      	ldrb	r3, [r3, #0]
20000be8:	b2db      	uxtb	r3, r3
20000bea:	f023 030c 	bic.w	r3, r3, #12
20000bee:	b2db      	uxtb	r3, r3
20000bf0:	7013      	strb	r3, [r2, #0]
20000bf2:	4907      	ldr	r1, [pc, #28]	; (20000c10 <FLASH_OB_BOR_LevelConfig+0x38>)
20000bf4:	4b06      	ldr	r3, [pc, #24]	; (20000c10 <FLASH_OB_BOR_LevelConfig+0x38>)
20000bf6:	781b      	ldrb	r3, [r3, #0]
20000bf8:	b2da      	uxtb	r2, r3
20000bfa:	79fb      	ldrb	r3, [r7, #7]
20000bfc:	4313      	orrs	r3, r2
20000bfe:	b2db      	uxtb	r3, r3
20000c00:	700b      	strb	r3, [r1, #0]
20000c02:	2300      	movs	r3, #0
20000c04:	4618      	mov	r0, r3
20000c06:	370c      	adds	r7, #12
20000c08:	46bd      	mov	sp, r7
20000c0a:	f85d 7b04 	ldr.w	r7, [sp], #4
20000c0e:	4770      	bx	lr
20000c10:	40023c14 	.word	0x40023c14

20000c14 <FLASH_OB_GetUser>:
20000c14:	b480      	push	{r7}
20000c16:	af00      	add	r7, sp, #0
20000c18:	4b05      	ldr	r3, [pc, #20]	; (20000c30 <FLASH_OB_GetUser+0x1c>)
20000c1a:	695b      	ldr	r3, [r3, #20]
20000c1c:	b2db      	uxtb	r3, r3
20000c1e:	f023 031f 	bic.w	r3, r3, #31
20000c22:	b2db      	uxtb	r3, r3
20000c24:	4618      	mov	r0, r3
20000c26:	46bd      	mov	sp, r7
20000c28:	f85d 7b04 	ldr.w	r7, [sp], #4
20000c2c:	4770      	bx	lr
20000c2e:	bf00      	nop
20000c30:	40023c00 	.word	0x40023c00

20000c34 <FLASH_OB_GetWRP>:
20000c34:	b480      	push	{r7}
20000c36:	af00      	add	r7, sp, #0
20000c38:	4b03      	ldr	r3, [pc, #12]	; (20000c48 <FLASH_OB_GetWRP+0x14>)
20000c3a:	881b      	ldrh	r3, [r3, #0]
20000c3c:	b29b      	uxth	r3, r3
20000c3e:	4618      	mov	r0, r3
20000c40:	46bd      	mov	sp, r7
20000c42:	f85d 7b04 	ldr.w	r7, [sp], #4
20000c46:	4770      	bx	lr
20000c48:	40023c16 	.word	0x40023c16

20000c4c <FLASH_OB_GetRDP>:
20000c4c:	b480      	push	{r7}
20000c4e:	b083      	sub	sp, #12
20000c50:	af00      	add	r7, sp, #0
20000c52:	2300      	movs	r3, #0
20000c54:	71fb      	strb	r3, [r7, #7]
20000c56:	4b07      	ldr	r3, [pc, #28]	; (20000c74 <FLASH_OB_GetRDP+0x28>)
20000c58:	781b      	ldrb	r3, [r3, #0]
20000c5a:	b2db      	uxtb	r3, r3
20000c5c:	2baa      	cmp	r3, #170	; 0xaa
20000c5e:	d001      	beq.n	20000c64 <FLASH_OB_GetRDP+0x18>
20000c60:	2301      	movs	r3, #1
20000c62:	71fb      	strb	r3, [r7, #7]
20000c64:	79fb      	ldrb	r3, [r7, #7]
20000c66:	4618      	mov	r0, r3
20000c68:	370c      	adds	r7, #12
20000c6a:	46bd      	mov	sp, r7
20000c6c:	f85d 7b04 	ldr.w	r7, [sp], #4
20000c70:	4770      	bx	lr
20000c72:	bf00      	nop
20000c74:	40023c15 	.word	0x40023c15

20000c78 <FLASH_OB_GetBOR>:
20000c78:	b480      	push	{r7}
20000c7a:	af00      	add	r7, sp, #0
20000c7c:	4b05      	ldr	r3, [pc, #20]	; (20000c94 <FLASH_OB_GetBOR+0x1c>)
20000c7e:	781b      	ldrb	r3, [r3, #0]
20000c80:	b2db      	uxtb	r3, r3
20000c82:	f003 030c 	and.w	r3, r3, #12
20000c86:	b2db      	uxtb	r3, r3
20000c88:	4618      	mov	r0, r3
20000c8a:	46bd      	mov	sp, r7
20000c8c:	f85d 7b04 	ldr.w	r7, [sp], #4
20000c90:	4770      	bx	lr
20000c92:	bf00      	nop
20000c94:	40023c14 	.word	0x40023c14

20000c98 <HAL_PWREx_EnableBkUpReg>:
20000c98:	b580      	push	{r7, lr}
20000c9a:	b086      	sub	sp, #24
20000c9c:	af00      	add	r7, sp, #0
20000c9e:	2300      	movs	r3, #0
20000ca0:	617b      	str	r3, [r7, #20]
20000ca2:	f44f 7300 	mov.w	r3, #512	; 0x200
20000ca6:	613b      	str	r3, [r7, #16]
20000ca8:	693b      	ldr	r3, [r7, #16]
20000caa:	fa93 f3a3 	rbit	r3, r3
20000cae:	60fb      	str	r3, [r7, #12]
20000cb0:	68fb      	ldr	r3, [r7, #12]
20000cb2:	60bb      	str	r3, [r7, #8]
20000cb4:	68bb      	ldr	r3, [r7, #8]
20000cb6:	fab3 f383 	clz	r3, r3
20000cba:	607b      	str	r3, [r7, #4]
20000cbc:	687b      	ldr	r3, [r7, #4]
20000cbe:	b2db      	uxtb	r3, r3
20000cc0:	009b      	lsls	r3, r3, #2
20000cc2:	461a      	mov	r2, r3
20000cc4:	4b0e      	ldr	r3, [pc, #56]	; (20000d00 <HAL_PWREx_EnableBkUpReg+0x68>)
20000cc6:	4413      	add	r3, r2
20000cc8:	461a      	mov	r2, r3
20000cca:	2301      	movs	r3, #1
20000ccc:	6013      	str	r3, [r2, #0]
20000cce:	f002 f989 	bl	20002fe4 <HAL_GetTick>
20000cd2:	6178      	str	r0, [r7, #20]
20000cd4:	e009      	b.n	20000cea <HAL_PWREx_EnableBkUpReg+0x52>
20000cd6:	f002 f985 	bl	20002fe4 <HAL_GetTick>
20000cda:	4602      	mov	r2, r0
20000cdc:	697b      	ldr	r3, [r7, #20]
20000cde:	1ad3      	subs	r3, r2, r3
20000ce0:	f5b3 7f7a 	cmp.w	r3, #1000	; 0x3e8
20000ce4:	d901      	bls.n	20000cea <HAL_PWREx_EnableBkUpReg+0x52>
20000ce6:	2303      	movs	r3, #3
20000ce8:	e006      	b.n	20000cf8 <HAL_PWREx_EnableBkUpReg+0x60>
20000cea:	4b06      	ldr	r3, [pc, #24]	; (20000d04 <HAL_PWREx_EnableBkUpReg+0x6c>)
20000cec:	685b      	ldr	r3, [r3, #4]
20000cee:	f003 0308 	and.w	r3, r3, #8
20000cf2:	2b00      	cmp	r3, #0
20000cf4:	d0ef      	beq.n	20000cd6 <HAL_PWREx_EnableBkUpReg+0x3e>
20000cf6:	2300      	movs	r3, #0
20000cf8:	4618      	mov	r0, r3
20000cfa:	3718      	adds	r7, #24
20000cfc:	46bd      	mov	sp, r7
20000cfe:	bd80      	pop	{r7, pc}
20000d00:	420e0080 	.word	0x420e0080
20000d04:	40007000 	.word	0x40007000

20000d08 <HAL_PWREx_DisableBkUpReg>:
20000d08:	b580      	push	{r7, lr}
20000d0a:	b086      	sub	sp, #24
20000d0c:	af00      	add	r7, sp, #0
20000d0e:	2300      	movs	r3, #0
20000d10:	617b      	str	r3, [r7, #20]
20000d12:	f44f 7300 	mov.w	r3, #512	; 0x200
20000d16:	613b      	str	r3, [r7, #16]
20000d18:	693b      	ldr	r3, [r7, #16]
20000d1a:	fa93 f3a3 	rbit	r3, r3
20000d1e:	60fb      	str	r3, [r7, #12]
20000d20:	68fb      	ldr	r3, [r7, #12]
20000d22:	60bb      	str	r3, [r7, #8]
20000d24:	68bb      	ldr	r3, [r7, #8]
20000d26:	fab3 f383 	clz	r3, r3
20000d2a:	607b      	str	r3, [r7, #4]
20000d2c:	687b      	ldr	r3, [r7, #4]
20000d2e:	b2db      	uxtb	r3, r3
20000d30:	009b      	lsls	r3, r3, #2
20000d32:	461a      	mov	r2, r3
20000d34:	4b0e      	ldr	r3, [pc, #56]	; (20000d70 <HAL_PWREx_DisableBkUpReg+0x68>)
20000d36:	4413      	add	r3, r2
20000d38:	461a      	mov	r2, r3
20000d3a:	2300      	movs	r3, #0
20000d3c:	6013      	str	r3, [r2, #0]
20000d3e:	f002 f951 	bl	20002fe4 <HAL_GetTick>
20000d42:	6178      	str	r0, [r7, #20]
20000d44:	e009      	b.n	20000d5a <HAL_PWREx_DisableBkUpReg+0x52>
20000d46:	f002 f94d 	bl	20002fe4 <HAL_GetTick>
20000d4a:	4602      	mov	r2, r0
20000d4c:	697b      	ldr	r3, [r7, #20]
20000d4e:	1ad3      	subs	r3, r2, r3
20000d50:	f5b3 7f7a 	cmp.w	r3, #1000	; 0x3e8
20000d54:	d901      	bls.n	20000d5a <HAL_PWREx_DisableBkUpReg+0x52>
20000d56:	2303      	movs	r3, #3
20000d58:	e006      	b.n	20000d68 <HAL_PWREx_DisableBkUpReg+0x60>
20000d5a:	4b06      	ldr	r3, [pc, #24]	; (20000d74 <HAL_PWREx_DisableBkUpReg+0x6c>)
20000d5c:	685b      	ldr	r3, [r3, #4]
20000d5e:	f003 0308 	and.w	r3, r3, #8
20000d62:	2b00      	cmp	r3, #0
20000d64:	d1ef      	bne.n	20000d46 <HAL_PWREx_DisableBkUpReg+0x3e>
20000d66:	2300      	movs	r3, #0
20000d68:	4618      	mov	r0, r3
20000d6a:	3718      	adds	r7, #24
20000d6c:	46bd      	mov	sp, r7
20000d6e:	bd80      	pop	{r7, pc}
20000d70:	420e0080 	.word	0x420e0080
20000d74:	40007000 	.word	0x40007000

20000d78 <HAL_PWREx_EnableFlashPowerDown>:
20000d78:	b480      	push	{r7}
20000d7a:	b085      	sub	sp, #20
20000d7c:	af00      	add	r7, sp, #0
20000d7e:	f44f 7300 	mov.w	r3, #512	; 0x200
20000d82:	60fb      	str	r3, [r7, #12]
20000d84:	68fb      	ldr	r3, [r7, #12]
20000d86:	fa93 f3a3 	rbit	r3, r3
20000d8a:	60bb      	str	r3, [r7, #8]
20000d8c:	68bb      	ldr	r3, [r7, #8]
20000d8e:	607b      	str	r3, [r7, #4]
20000d90:	687b      	ldr	r3, [r7, #4]
20000d92:	fab3 f383 	clz	r3, r3
20000d96:	603b      	str	r3, [r7, #0]
20000d98:	683b      	ldr	r3, [r7, #0]
20000d9a:	b2db      	uxtb	r3, r3
20000d9c:	009b      	lsls	r3, r3, #2
20000d9e:	f103 4384 	add.w	r3, r3, #1107296256	; 0x42000000
20000da2:	f503 2360 	add.w	r3, r3, #917504	; 0xe0000
20000da6:	461a      	mov	r2, r3
20000da8:	2301      	movs	r3, #1
20000daa:	6013      	str	r3, [r2, #0]
20000dac:	3714      	adds	r7, #20
20000dae:	46bd      	mov	sp, r7
20000db0:	f85d 7b04 	ldr.w	r7, [sp], #4
20000db4:	4770      	bx	lr
20000db6:	bf00      	nop

20000db8 <HAL_PWREx_DisableFlashPowerDown>:
20000db8:	b480      	push	{r7}
20000dba:	b085      	sub	sp, #20
20000dbc:	af00      	add	r7, sp, #0
20000dbe:	f44f 7300 	mov.w	r3, #512	; 0x200
20000dc2:	60fb      	str	r3, [r7, #12]
20000dc4:	68fb      	ldr	r3, [r7, #12]
20000dc6:	fa93 f3a3 	rbit	r3, r3
20000dca:	60bb      	str	r3, [r7, #8]
20000dcc:	68bb      	ldr	r3, [r7, #8]
20000dce:	607b      	str	r3, [r7, #4]
20000dd0:	687b      	ldr	r3, [r7, #4]
20000dd2:	fab3 f383 	clz	r3, r3
20000dd6:	603b      	str	r3, [r7, #0]
20000dd8:	683b      	ldr	r3, [r7, #0]
20000dda:	b2db      	uxtb	r3, r3
20000ddc:	009b      	lsls	r3, r3, #2
20000dde:	f103 4384 	add.w	r3, r3, #1107296256	; 0x42000000
20000de2:	f503 2360 	add.w	r3, r3, #917504	; 0xe0000
20000de6:	461a      	mov	r2, r3
20000de8:	2300      	movs	r3, #0
20000dea:	6013      	str	r3, [r2, #0]
20000dec:	3714      	adds	r7, #20
20000dee:	46bd      	mov	sp, r7
20000df0:	f85d 7b04 	ldr.w	r7, [sp], #4
20000df4:	4770      	bx	lr
20000df6:	bf00      	nop

20000df8 <HAL_PWREx_GetVoltageRange>:
20000df8:	b480      	push	{r7}
20000dfa:	af00      	add	r7, sp, #0
20000dfc:	4b04      	ldr	r3, [pc, #16]	; (20000e10 <HAL_PWREx_GetVoltageRange+0x18>)
20000dfe:	681b      	ldr	r3, [r3, #0]
20000e00:	f403 4340 	and.w	r3, r3, #49152	; 0xc000
20000e04:	4618      	mov	r0, r3
20000e06:	46bd      	mov	sp, r7
20000e08:	f85d 7b04 	ldr.w	r7, [sp], #4
20000e0c:	4770      	bx	lr
20000e0e:	bf00      	nop
20000e10:	40007000 	.word	0x40007000

20000e14 <HAL_PWREx_ControlVoltageScaling>:
20000e14:	b580      	push	{r7, lr}
20000e16:	b086      	sub	sp, #24
20000e18:	af00      	add	r7, sp, #0
20000e1a:	6078      	str	r0, [r7, #4]
20000e1c:	2300      	movs	r3, #0
20000e1e:	617b      	str	r3, [r7, #20]
20000e20:	4a33      	ldr	r2, [pc, #204]	; (20000ef0 <HAL_PWREx_ControlVoltageScaling+0xdc>)
20000e22:	4b33      	ldr	r3, [pc, #204]	; (20000ef0 <HAL_PWREx_ControlVoltageScaling+0xdc>)
20000e24:	6c1b      	ldr	r3, [r3, #64]	; 0x40
20000e26:	f043 5380 	orr.w	r3, r3, #268435456	; 0x10000000
20000e2a:	6413      	str	r3, [r2, #64]	; 0x40
20000e2c:	4b30      	ldr	r3, [pc, #192]	; (20000ef0 <HAL_PWREx_ControlVoltageScaling+0xdc>)
20000e2e:	6c1b      	ldr	r3, [r3, #64]	; 0x40
20000e30:	f003 5380 	and.w	r3, r3, #268435456	; 0x10000000
20000e34:	613b      	str	r3, [r7, #16]
20000e36:	693b      	ldr	r3, [r7, #16]
20000e38:	4b2d      	ldr	r3, [pc, #180]	; (20000ef0 <HAL_PWREx_ControlVoltageScaling+0xdc>)
20000e3a:	689b      	ldr	r3, [r3, #8]
20000e3c:	f003 030c 	and.w	r3, r3, #12
20000e40:	2b08      	cmp	r3, #8
20000e42:	d04e      	beq.n	20000ee2 <HAL_PWREx_ControlVoltageScaling+0xce>
20000e44:	4b2b      	ldr	r3, [pc, #172]	; (20000ef4 <HAL_PWREx_ControlVoltageScaling+0xe0>)
20000e46:	2200      	movs	r2, #0
20000e48:	601a      	str	r2, [r3, #0]
20000e4a:	f002 f8cb 	bl	20002fe4 <HAL_GetTick>
20000e4e:	6178      	str	r0, [r7, #20]
20000e50:	e008      	b.n	20000e64 <HAL_PWREx_ControlVoltageScaling+0x50>
20000e52:	f002 f8c7 	bl	20002fe4 <HAL_GetTick>
20000e56:	4602      	mov	r2, r0
20000e58:	697b      	ldr	r3, [r7, #20]
20000e5a:	1ad3      	subs	r3, r2, r3
20000e5c:	2b64      	cmp	r3, #100	; 0x64
20000e5e:	d901      	bls.n	20000e64 <HAL_PWREx_ControlVoltageScaling+0x50>
20000e60:	2303      	movs	r3, #3
20000e62:	e041      	b.n	20000ee8 <HAL_PWREx_ControlVoltageScaling+0xd4>
20000e64:	4b22      	ldr	r3, [pc, #136]	; (20000ef0 <HAL_PWREx_ControlVoltageScaling+0xdc>)
20000e66:	681b      	ldr	r3, [r3, #0]
20000e68:	f003 7300 	and.w	r3, r3, #33554432	; 0x2000000
20000e6c:	2b00      	cmp	r3, #0
20000e6e:	d1f0      	bne.n	20000e52 <HAL_PWREx_ControlVoltageScaling+0x3e>
20000e70:	4921      	ldr	r1, [pc, #132]	; (20000ef8 <HAL_PWREx_ControlVoltageScaling+0xe4>)
20000e72:	4b21      	ldr	r3, [pc, #132]	; (20000ef8 <HAL_PWREx_ControlVoltageScaling+0xe4>)
20000e74:	681b      	ldr	r3, [r3, #0]
20000e76:	f423 4240 	bic.w	r2, r3, #49152	; 0xc000
20000e7a:	687b      	ldr	r3, [r7, #4]
20000e7c:	4313      	orrs	r3, r2
20000e7e:	600b      	str	r3, [r1, #0]
20000e80:	4b1d      	ldr	r3, [pc, #116]	; (20000ef8 <HAL_PWREx_ControlVoltageScaling+0xe4>)
20000e82:	681b      	ldr	r3, [r3, #0]
20000e84:	f403 4340 	and.w	r3, r3, #49152	; 0xc000
20000e88:	60fb      	str	r3, [r7, #12]
20000e8a:	68fb      	ldr	r3, [r7, #12]
20000e8c:	4b19      	ldr	r3, [pc, #100]	; (20000ef4 <HAL_PWREx_ControlVoltageScaling+0xe0>)
20000e8e:	2201      	movs	r2, #1
20000e90:	601a      	str	r2, [r3, #0]
20000e92:	f002 f8a7 	bl	20002fe4 <HAL_GetTick>
20000e96:	6178      	str	r0, [r7, #20]
20000e98:	e008      	b.n	20000eac <HAL_PWREx_ControlVoltageScaling+0x98>
20000e9a:	f002 f8a3 	bl	20002fe4 <HAL_GetTick>
20000e9e:	4602      	mov	r2, r0
20000ea0:	697b      	ldr	r3, [r7, #20]
20000ea2:	1ad3      	subs	r3, r2, r3
20000ea4:	2b64      	cmp	r3, #100	; 0x64
20000ea6:	d901      	bls.n	20000eac <HAL_PWREx_ControlVoltageScaling+0x98>
20000ea8:	2303      	movs	r3, #3
20000eaa:	e01d      	b.n	20000ee8 <HAL_PWREx_ControlVoltageScaling+0xd4>
20000eac:	4b10      	ldr	r3, [pc, #64]	; (20000ef0 <HAL_PWREx_ControlVoltageScaling+0xdc>)
20000eae:	681b      	ldr	r3, [r3, #0]
20000eb0:	f003 7300 	and.w	r3, r3, #33554432	; 0x2000000
20000eb4:	2b00      	cmp	r3, #0
20000eb6:	d0f0      	beq.n	20000e9a <HAL_PWREx_ControlVoltageScaling+0x86>
20000eb8:	f002 f894 	bl	20002fe4 <HAL_GetTick>
20000ebc:	6178      	str	r0, [r7, #20]
20000ebe:	e009      	b.n	20000ed4 <HAL_PWREx_ControlVoltageScaling+0xc0>
20000ec0:	f002 f890 	bl	20002fe4 <HAL_GetTick>
20000ec4:	4602      	mov	r2, r0
20000ec6:	697b      	ldr	r3, [r7, #20]
20000ec8:	1ad3      	subs	r3, r2, r3
20000eca:	f5b3 7f7a 	cmp.w	r3, #1000	; 0x3e8
20000ece:	d901      	bls.n	20000ed4 <HAL_PWREx_ControlVoltageScaling+0xc0>
20000ed0:	2303      	movs	r3, #3
20000ed2:	e009      	b.n	20000ee8 <HAL_PWREx_ControlVoltageScaling+0xd4>
20000ed4:	4b08      	ldr	r3, [pc, #32]	; (20000ef8 <HAL_PWREx_ControlVoltageScaling+0xe4>)
20000ed6:	685b      	ldr	r3, [r3, #4]
20000ed8:	f403 4380 	and.w	r3, r3, #16384	; 0x4000
20000edc:	2b00      	cmp	r3, #0
20000ede:	d0ef      	beq.n	20000ec0 <HAL_PWREx_ControlVoltageScaling+0xac>
20000ee0:	e001      	b.n	20000ee6 <HAL_PWREx_ControlVoltageScaling+0xd2>
20000ee2:	2301      	movs	r3, #1
20000ee4:	e000      	b.n	20000ee8 <HAL_PWREx_ControlVoltageScaling+0xd4>
20000ee6:	2300      	movs	r3, #0
20000ee8:	4618      	mov	r0, r3
20000eea:	3718      	adds	r7, #24
20000eec:	46bd      	mov	sp, r7
20000eee:	bd80      	pop	{r7, pc}
20000ef0:	40023800 	.word	0x40023800
20000ef4:	42470060 	.word	0x42470060
20000ef8:	40007000 	.word	0x40007000

20000efc <HAL_PWREx_EnableOverDrive>:
20000efc:	b580      	push	{r7, lr}
20000efe:	b08a      	sub	sp, #40	; 0x28
20000f00:	af00      	add	r7, sp, #0
20000f02:	2300      	movs	r3, #0
20000f04:	627b      	str	r3, [r7, #36]	; 0x24
20000f06:	4a33      	ldr	r2, [pc, #204]	; (20000fd4 <HAL_PWREx_EnableOverDrive+0xd8>)
20000f08:	4b32      	ldr	r3, [pc, #200]	; (20000fd4 <HAL_PWREx_EnableOverDrive+0xd8>)
20000f0a:	6c1b      	ldr	r3, [r3, #64]	; 0x40
20000f0c:	f043 5380 	orr.w	r3, r3, #268435456	; 0x10000000
20000f10:	6413      	str	r3, [r2, #64]	; 0x40
20000f12:	4b30      	ldr	r3, [pc, #192]	; (20000fd4 <HAL_PWREx_EnableOverDrive+0xd8>)
20000f14:	6c1b      	ldr	r3, [r3, #64]	; 0x40
20000f16:	f003 5380 	and.w	r3, r3, #268435456	; 0x10000000
20000f1a:	603b      	str	r3, [r7, #0]
20000f1c:	683b      	ldr	r3, [r7, #0]
20000f1e:	f44f 3380 	mov.w	r3, #65536	; 0x10000
20000f22:	623b      	str	r3, [r7, #32]
20000f24:	6a3b      	ldr	r3, [r7, #32]
20000f26:	fa93 f3a3 	rbit	r3, r3
20000f2a:	61fb      	str	r3, [r7, #28]
20000f2c:	69fb      	ldr	r3, [r7, #28]
20000f2e:	61bb      	str	r3, [r7, #24]
20000f30:	69bb      	ldr	r3, [r7, #24]
20000f32:	fab3 f383 	clz	r3, r3
20000f36:	617b      	str	r3, [r7, #20]
20000f38:	697b      	ldr	r3, [r7, #20]
20000f3a:	b2db      	uxtb	r3, r3
20000f3c:	009b      	lsls	r3, r3, #2
20000f3e:	f103 4384 	add.w	r3, r3, #1107296256	; 0x42000000
20000f42:	f503 2360 	add.w	r3, r3, #917504	; 0xe0000
20000f46:	461a      	mov	r2, r3
20000f48:	2301      	movs	r3, #1
20000f4a:	6013      	str	r3, [r2, #0]
20000f4c:	f002 f84a 	bl	20002fe4 <HAL_GetTick>
20000f50:	6278      	str	r0, [r7, #36]	; 0x24
20000f52:	e009      	b.n	20000f68 <HAL_PWREx_EnableOverDrive+0x6c>
20000f54:	f002 f846 	bl	20002fe4 <HAL_GetTick>
20000f58:	4602      	mov	r2, r0
20000f5a:	6a7b      	ldr	r3, [r7, #36]	; 0x24
20000f5c:	1ad3      	subs	r3, r2, r3
20000f5e:	f5b3 7f7a 	cmp.w	r3, #1000	; 0x3e8
20000f62:	d901      	bls.n	20000f68 <HAL_PWREx_EnableOverDrive+0x6c>
20000f64:	2303      	movs	r3, #3
20000f66:	e031      	b.n	20000fcc <HAL_PWREx_EnableOverDrive+0xd0>
20000f68:	4b1b      	ldr	r3, [pc, #108]	; (20000fd8 <HAL_PWREx_EnableOverDrive+0xdc>)
20000f6a:	685b      	ldr	r3, [r3, #4]
20000f6c:	f403 3380 	and.w	r3, r3, #65536	; 0x10000
20000f70:	2b00      	cmp	r3, #0
20000f72:	d0ef      	beq.n	20000f54 <HAL_PWREx_EnableOverDrive+0x58>
20000f74:	f44f 3300 	mov.w	r3, #131072	; 0x20000
20000f78:	613b      	str	r3, [r7, #16]
20000f7a:	693b      	ldr	r3, [r7, #16]
20000f7c:	fa93 f3a3 	rbit	r3, r3
20000f80:	60fb      	str	r3, [r7, #12]
20000f82:	68fb      	ldr	r3, [r7, #12]
20000f84:	60bb      	str	r3, [r7, #8]
20000f86:	68bb      	ldr	r3, [r7, #8]
20000f88:	fab3 f383 	clz	r3, r3
20000f8c:	607b      	str	r3, [r7, #4]
20000f8e:	687b      	ldr	r3, [r7, #4]
20000f90:	b2db      	uxtb	r3, r3
20000f92:	009b      	lsls	r3, r3, #2
20000f94:	f103 4384 	add.w	r3, r3, #1107296256	; 0x42000000
20000f98:	f503 2360 	add.w	r3, r3, #917504	; 0xe0000
20000f9c:	461a      	mov	r2, r3
20000f9e:	2301      	movs	r3, #1
20000fa0:	6013      	str	r3, [r2, #0]
20000fa2:	f002 f81f 	bl	20002fe4 <HAL_GetTick>
20000fa6:	6278      	str	r0, [r7, #36]	; 0x24
20000fa8:	e009      	b.n	20000fbe <HAL_PWREx_EnableOverDrive+0xc2>
20000faa:	f002 f81b 	bl	20002fe4 <HAL_GetTick>
20000fae:	4602      	mov	r2, r0
20000fb0:	6a7b      	ldr	r3, [r7, #36]	; 0x24
20000fb2:	1ad3      	subs	r3, r2, r3
20000fb4:	f5b3 7f7a 	cmp.w	r3, #1000	; 0x3e8
20000fb8:	d901      	bls.n	20000fbe <HAL_PWREx_EnableOverDrive+0xc2>
20000fba:	2303      	movs	r3, #3
20000fbc:	e006      	b.n	20000fcc <HAL_PWREx_EnableOverDrive+0xd0>
20000fbe:	4b06      	ldr	r3, [pc, #24]	; (20000fd8 <HAL_PWREx_EnableOverDrive+0xdc>)
20000fc0:	685b      	ldr	r3, [r3, #4]
20000fc2:	f403 3300 	and.w	r3, r3, #131072	; 0x20000
20000fc6:	2b00      	cmp	r3, #0
20000fc8:	d0ef      	beq.n	20000faa <HAL_PWREx_EnableOverDrive+0xae>
20000fca:	2300      	movs	r3, #0
20000fcc:	4618      	mov	r0, r3
20000fce:	3728      	adds	r7, #40	; 0x28
20000fd0:	46bd      	mov	sp, r7
20000fd2:	bd80      	pop	{r7, pc}
20000fd4:	40023800 	.word	0x40023800
20000fd8:	40007000 	.word	0x40007000

20000fdc <HAL_PWREx_DisableOverDrive>:
20000fdc:	b580      	push	{r7, lr}
20000fde:	b08a      	sub	sp, #40	; 0x28
20000fe0:	af00      	add	r7, sp, #0
20000fe2:	2300      	movs	r3, #0
20000fe4:	627b      	str	r3, [r7, #36]	; 0x24
20000fe6:	4a33      	ldr	r2, [pc, #204]	; (200010b4 <HAL_PWREx_DisableOverDrive+0xd8>)
20000fe8:	4b32      	ldr	r3, [pc, #200]	; (200010b4 <HAL_PWREx_DisableOverDrive+0xd8>)
20000fea:	6c1b      	ldr	r3, [r3, #64]	; 0x40
20000fec:	f043 5380 	orr.w	r3, r3, #268435456	; 0x10000000
20000ff0:	6413      	str	r3, [r2, #64]	; 0x40
20000ff2:	4b30      	ldr	r3, [pc, #192]	; (200010b4 <HAL_PWREx_DisableOverDrive+0xd8>)
20000ff4:	6c1b      	ldr	r3, [r3, #64]	; 0x40
20000ff6:	f003 5380 	and.w	r3, r3, #268435456	; 0x10000000
20000ffa:	603b      	str	r3, [r7, #0]
20000ffc:	683b      	ldr	r3, [r7, #0]
20000ffe:	f44f 3300 	mov.w	r3, #131072	; 0x20000
20001002:	623b      	str	r3, [r7, #32]
20001004:	6a3b      	ldr	r3, [r7, #32]
20001006:	fa93 f3a3 	rbit	r3, r3
2000100a:	61fb      	str	r3, [r7, #28]
2000100c:	69fb      	ldr	r3, [r7, #28]
2000100e:	61bb      	str	r3, [r7, #24]
20001010:	69bb      	ldr	r3, [r7, #24]
20001012:	fab3 f383 	clz	r3, r3
20001016:	617b      	str	r3, [r7, #20]
20001018:	697b      	ldr	r3, [r7, #20]
2000101a:	b2db      	uxtb	r3, r3
2000101c:	009b      	lsls	r3, r3, #2
2000101e:	f103 4384 	add.w	r3, r3, #1107296256	; 0x42000000
20001022:	f503 2360 	add.w	r3, r3, #917504	; 0xe0000
20001026:	461a      	mov	r2, r3
20001028:	2300      	movs	r3, #0
2000102a:	6013      	str	r3, [r2, #0]
2000102c:	f001 ffda 	bl	20002fe4 <HAL_GetTick>
20001030:	6278      	str	r0, [r7, #36]	; 0x24
20001032:	e009      	b.n	20001048 <HAL_PWREx_DisableOverDrive+0x6c>
20001034:	f001 ffd6 	bl	20002fe4 <HAL_GetTick>
20001038:	4602      	mov	r2, r0
2000103a:	6a7b      	ldr	r3, [r7, #36]	; 0x24
2000103c:	1ad3      	subs	r3, r2, r3
2000103e:	f5b3 7f7a 	cmp.w	r3, #1000	; 0x3e8
20001042:	d901      	bls.n	20001048 <HAL_PWREx_DisableOverDrive+0x6c>
20001044:	2303      	movs	r3, #3
20001046:	e031      	b.n	200010ac <HAL_PWREx_DisableOverDrive+0xd0>
20001048:	4b1b      	ldr	r3, [pc, #108]	; (200010b8 <HAL_PWREx_DisableOverDrive+0xdc>)
2000104a:	685b      	ldr	r3, [r3, #4]
2000104c:	f403 3300 	and.w	r3, r3, #131072	; 0x20000
20001050:	2b00      	cmp	r3, #0
20001052:	d1ef      	bne.n	20001034 <HAL_PWREx_DisableOverDrive+0x58>
20001054:	f44f 3380 	mov.w	r3, #65536	; 0x10000
20001058:	613b      	str	r3, [r7, #16]
2000105a:	693b      	ldr	r3, [r7, #16]
2000105c:	fa93 f3a3 	rbit	r3, r3
20001060:	60fb      	str	r3, [r7, #12]
20001062:	68fb      	ldr	r3, [r7, #12]
20001064:	60bb      	str	r3, [r7, #8]
20001066:	68bb      	ldr	r3, [r7, #8]
20001068:	fab3 f383 	clz	r3, r3
2000106c:	607b      	str	r3, [r7, #4]
2000106e:	687b      	ldr	r3, [r7, #4]
20001070:	b2db      	uxtb	r3, r3
20001072:	009b      	lsls	r3, r3, #2
20001074:	f103 4384 	add.w	r3, r3, #1107296256	; 0x42000000
20001078:	f503 2360 	add.w	r3, r3, #917504	; 0xe0000
2000107c:	461a      	mov	r2, r3
2000107e:	2300      	movs	r3, #0
20001080:	6013      	str	r3, [r2, #0]
20001082:	f001 ffaf 	bl	20002fe4 <HAL_GetTick>
20001086:	6278      	str	r0, [r7, #36]	; 0x24
20001088:	e009      	b.n	2000109e <HAL_PWREx_DisableOverDrive+0xc2>
2000108a:	f001 ffab 	bl	20002fe4 <HAL_GetTick>
2000108e:	4602      	mov	r2, r0
20001090:	6a7b      	ldr	r3, [r7, #36]	; 0x24
20001092:	1ad3      	subs	r3, r2, r3
20001094:	f5b3 7f7a 	cmp.w	r3, #1000	; 0x3e8
20001098:	d901      	bls.n	2000109e <HAL_PWREx_DisableOverDrive+0xc2>
2000109a:	2303      	movs	r3, #3
2000109c:	e006      	b.n	200010ac <HAL_PWREx_DisableOverDrive+0xd0>
2000109e:	4b06      	ldr	r3, [pc, #24]	; (200010b8 <HAL_PWREx_DisableOverDrive+0xdc>)
200010a0:	685b      	ldr	r3, [r3, #4]
200010a2:	f403 3380 	and.w	r3, r3, #65536	; 0x10000
200010a6:	2b00      	cmp	r3, #0
200010a8:	d1ef      	bne.n	2000108a <HAL_PWREx_DisableOverDrive+0xae>
200010aa:	2300      	movs	r3, #0
200010ac:	4618      	mov	r0, r3
200010ae:	3728      	adds	r7, #40	; 0x28
200010b0:	46bd      	mov	sp, r7
200010b2:	bd80      	pop	{r7, pc}
200010b4:	40023800 	.word	0x40023800
200010b8:	40007000 	.word	0x40007000

200010bc <HAL_PWREx_EnterUnderDriveSTOPMode>:
200010bc:	b580      	push	{r7, lr}
200010be:	b086      	sub	sp, #24
200010c0:	af00      	add	r7, sp, #0
200010c2:	6078      	str	r0, [r7, #4]
200010c4:	460b      	mov	r3, r1
200010c6:	70fb      	strb	r3, [r7, #3]
200010c8:	2300      	movs	r3, #0
200010ca:	617b      	str	r3, [r7, #20]
200010cc:	2300      	movs	r3, #0
200010ce:	613b      	str	r3, [r7, #16]
200010d0:	4a29      	ldr	r2, [pc, #164]	; (20001178 <HAL_PWREx_EnterUnderDriveSTOPMode+0xbc>)
200010d2:	4b29      	ldr	r3, [pc, #164]	; (20001178 <HAL_PWREx_EnterUnderDriveSTOPMode+0xbc>)
200010d4:	6c1b      	ldr	r3, [r3, #64]	; 0x40
200010d6:	f043 5380 	orr.w	r3, r3, #268435456	; 0x10000000
200010da:	6413      	str	r3, [r2, #64]	; 0x40
200010dc:	4b26      	ldr	r3, [pc, #152]	; (20001178 <HAL_PWREx_EnterUnderDriveSTOPMode+0xbc>)
200010de:	6c1b      	ldr	r3, [r3, #64]	; 0x40
200010e0:	f003 5380 	and.w	r3, r3, #268435456	; 0x10000000
200010e4:	60fb      	str	r3, [r7, #12]
200010e6:	68fb      	ldr	r3, [r7, #12]
200010e8:	4a24      	ldr	r2, [pc, #144]	; (2000117c <HAL_PWREx_EnterUnderDriveSTOPMode+0xc0>)
200010ea:	4b24      	ldr	r3, [pc, #144]	; (2000117c <HAL_PWREx_EnterUnderDriveSTOPMode+0xc0>)
200010ec:	685b      	ldr	r3, [r3, #4]
200010ee:	f443 2340 	orr.w	r3, r3, #786432	; 0xc0000
200010f2:	6053      	str	r3, [r2, #4]
200010f4:	4a21      	ldr	r2, [pc, #132]	; (2000117c <HAL_PWREx_EnterUnderDriveSTOPMode+0xc0>)
200010f6:	4b21      	ldr	r3, [pc, #132]	; (2000117c <HAL_PWREx_EnterUnderDriveSTOPMode+0xc0>)
200010f8:	681b      	ldr	r3, [r3, #0]
200010fa:	f443 2340 	orr.w	r3, r3, #786432	; 0xc0000
200010fe:	6013      	str	r3, [r2, #0]
20001100:	f001 ff70 	bl	20002fe4 <HAL_GetTick>
20001104:	6138      	str	r0, [r7, #16]
20001106:	e009      	b.n	2000111c <HAL_PWREx_EnterUnderDriveSTOPMode+0x60>
20001108:	f001 ff6c 	bl	20002fe4 <HAL_GetTick>
2000110c:	4602      	mov	r2, r0
2000110e:	693b      	ldr	r3, [r7, #16]
20001110:	1ad3      	subs	r3, r2, r3
20001112:	f5b3 7f7a 	cmp.w	r3, #1000	; 0x3e8
20001116:	d901      	bls.n	2000111c <HAL_PWREx_EnterUnderDriveSTOPMode+0x60>
20001118:	2303      	movs	r3, #3
2000111a:	e029      	b.n	20001170 <HAL_PWREx_EnterUnderDriveSTOPMode+0xb4>
2000111c:	4b17      	ldr	r3, [pc, #92]	; (2000117c <HAL_PWREx_EnterUnderDriveSTOPMode+0xc0>)
2000111e:	685b      	ldr	r3, [r3, #4]
20001120:	f403 2340 	and.w	r3, r3, #786432	; 0xc0000
20001124:	f5b3 2f40 	cmp.w	r3, #786432	; 0xc0000
20001128:	d0ee      	beq.n	20001108 <HAL_PWREx_EnterUnderDriveSTOPMode+0x4c>
2000112a:	4b14      	ldr	r3, [pc, #80]	; (2000117c <HAL_PWREx_EnterUnderDriveSTOPMode+0xc0>)
2000112c:	681b      	ldr	r3, [r3, #0]
2000112e:	617b      	str	r3, [r7, #20]
20001130:	697b      	ldr	r3, [r7, #20]
20001132:	f423 6340 	bic.w	r3, r3, #3072	; 0xc00
20001136:	f023 0303 	bic.w	r3, r3, #3
2000113a:	617b      	str	r3, [r7, #20]
2000113c:	697a      	ldr	r2, [r7, #20]
2000113e:	687b      	ldr	r3, [r7, #4]
20001140:	4313      	orrs	r3, r2
20001142:	617b      	str	r3, [r7, #20]
20001144:	4a0d      	ldr	r2, [pc, #52]	; (2000117c <HAL_PWREx_EnterUnderDriveSTOPMode+0xc0>)
20001146:	697b      	ldr	r3, [r7, #20]
20001148:	6013      	str	r3, [r2, #0]
2000114a:	4a0d      	ldr	r2, [pc, #52]	; (20001180 <HAL_PWREx_EnterUnderDriveSTOPMode+0xc4>)
2000114c:	4b0c      	ldr	r3, [pc, #48]	; (20001180 <HAL_PWREx_EnterUnderDriveSTOPMode+0xc4>)
2000114e:	691b      	ldr	r3, [r3, #16]
20001150:	f043 0304 	orr.w	r3, r3, #4
20001154:	6113      	str	r3, [r2, #16]
20001156:	78fb      	ldrb	r3, [r7, #3]
20001158:	2b01      	cmp	r3, #1
2000115a:	d101      	bne.n	20001160 <HAL_PWREx_EnterUnderDriveSTOPMode+0xa4>
2000115c:	bf30      	wfi
2000115e:	e000      	b.n	20001162 <HAL_PWREx_EnterUnderDriveSTOPMode+0xa6>
20001160:	bf20      	wfe
20001162:	4a07      	ldr	r2, [pc, #28]	; (20001180 <HAL_PWREx_EnterUnderDriveSTOPMode+0xc4>)
20001164:	4b06      	ldr	r3, [pc, #24]	; (20001180 <HAL_PWREx_EnterUnderDriveSTOPMode+0xc4>)
20001166:	691b      	ldr	r3, [r3, #16]
20001168:	f023 0304 	bic.w	r3, r3, #4
2000116c:	6113      	str	r3, [r2, #16]
2000116e:	2300      	movs	r3, #0
20001170:	4618      	mov	r0, r3
20001172:	3718      	adds	r7, #24
20001174:	46bd      	mov	sp, r7
20001176:	bd80      	pop	{r7, pc}
20001178:	40023800 	.word	0x40023800
2000117c:	40007000 	.word	0x40007000
20001180:	e000ed00 	.word	0xe000ed00

20001184 <HAL_GPIO_Init>:
20001184:	b480      	push	{r7}
20001186:	b089      	sub	sp, #36	; 0x24
20001188:	af00      	add	r7, sp, #0
2000118a:	6078      	str	r0, [r7, #4]
2000118c:	6039      	str	r1, [r7, #0]
2000118e:	2300      	movs	r3, #0
20001190:	617b      	str	r3, [r7, #20]
20001192:	2300      	movs	r3, #0
20001194:	613b      	str	r3, [r7, #16]
20001196:	2300      	movs	r3, #0
20001198:	61bb      	str	r3, [r7, #24]
2000119a:	2300      	movs	r3, #0
2000119c:	61fb      	str	r3, [r7, #28]
2000119e:	e171      	b.n	20001484 <HAL_GPIO_Init+0x300>
200011a0:	69fb      	ldr	r3, [r7, #28]
200011a2:	2201      	movs	r2, #1
200011a4:	fa02 f303 	lsl.w	r3, r2, r3
200011a8:	617b      	str	r3, [r7, #20]
200011aa:	683b      	ldr	r3, [r7, #0]
200011ac:	681a      	ldr	r2, [r3, #0]
200011ae:	697b      	ldr	r3, [r7, #20]
200011b0:	4013      	ands	r3, r2
200011b2:	613b      	str	r3, [r7, #16]
200011b4:	693a      	ldr	r2, [r7, #16]
200011b6:	697b      	ldr	r3, [r7, #20]
200011b8:	429a      	cmp	r2, r3
200011ba:	f040 8160 	bne.w	2000147e <HAL_GPIO_Init+0x2fa>
200011be:	683b      	ldr	r3, [r7, #0]
200011c0:	685b      	ldr	r3, [r3, #4]
200011c2:	2b02      	cmp	r3, #2
200011c4:	d003      	beq.n	200011ce <HAL_GPIO_Init+0x4a>
200011c6:	683b      	ldr	r3, [r7, #0]
200011c8:	685b      	ldr	r3, [r3, #4]
200011ca:	2b12      	cmp	r3, #18
200011cc:	d122      	bne.n	20001214 <HAL_GPIO_Init+0x90>
200011ce:	69fb      	ldr	r3, [r7, #28]
200011d0:	08da      	lsrs	r2, r3, #3
200011d2:	687b      	ldr	r3, [r7, #4]
200011d4:	3208      	adds	r2, #8
200011d6:	f853 3022 	ldr.w	r3, [r3, r2, lsl #2]
200011da:	61bb      	str	r3, [r7, #24]
200011dc:	69fb      	ldr	r3, [r7, #28]
200011de:	f003 0307 	and.w	r3, r3, #7
200011e2:	009b      	lsls	r3, r3, #2
200011e4:	461a      	mov	r2, r3
200011e6:	230f      	movs	r3, #15
200011e8:	4093      	lsls	r3, r2
200011ea:	43db      	mvns	r3, r3
200011ec:	69ba      	ldr	r2, [r7, #24]
200011ee:	4013      	ands	r3, r2
200011f0:	61bb      	str	r3, [r7, #24]
200011f2:	683b      	ldr	r3, [r7, #0]
200011f4:	691b      	ldr	r3, [r3, #16]
200011f6:	69fa      	ldr	r2, [r7, #28]
200011f8:	f002 0207 	and.w	r2, r2, #7
200011fc:	0092      	lsls	r2, r2, #2
200011fe:	4093      	lsls	r3, r2
20001200:	69ba      	ldr	r2, [r7, #24]
20001202:	4313      	orrs	r3, r2
20001204:	61bb      	str	r3, [r7, #24]
20001206:	69fb      	ldr	r3, [r7, #28]
20001208:	08da      	lsrs	r2, r3, #3
2000120a:	687b      	ldr	r3, [r7, #4]
2000120c:	3208      	adds	r2, #8
2000120e:	69b9      	ldr	r1, [r7, #24]
20001210:	f843 1022 	str.w	r1, [r3, r2, lsl #2]
20001214:	687b      	ldr	r3, [r7, #4]
20001216:	681b      	ldr	r3, [r3, #0]
20001218:	61bb      	str	r3, [r7, #24]
2000121a:	69fb      	ldr	r3, [r7, #28]
2000121c:	005b      	lsls	r3, r3, #1
2000121e:	461a      	mov	r2, r3
20001220:	2303      	movs	r3, #3
20001222:	4093      	lsls	r3, r2
20001224:	43db      	mvns	r3, r3
20001226:	69ba      	ldr	r2, [r7, #24]
20001228:	4013      	ands	r3, r2
2000122a:	61bb      	str	r3, [r7, #24]
2000122c:	683b      	ldr	r3, [r7, #0]
2000122e:	685b      	ldr	r3, [r3, #4]
20001230:	f003 0303 	and.w	r3, r3, #3
20001234:	69fa      	ldr	r2, [r7, #28]
20001236:	0052      	lsls	r2, r2, #1
20001238:	4093      	lsls	r3, r2
2000123a:	69ba      	ldr	r2, [r7, #24]
2000123c:	4313      	orrs	r3, r2
2000123e:	61bb      	str	r3, [r7, #24]
20001240:	687b      	ldr	r3, [r7, #4]
20001242:	69ba      	ldr	r2, [r7, #24]
20001244:	601a      	str	r2, [r3, #0]
20001246:	683b      	ldr	r3, [r7, #0]
20001248:	685b      	ldr	r3, [r3, #4]
2000124a:	2b01      	cmp	r3, #1
2000124c:	d00b      	beq.n	20001266 <HAL_GPIO_Init+0xe2>
2000124e:	683b      	ldr	r3, [r7, #0]
20001250:	685b      	ldr	r3, [r3, #4]
20001252:	2b02      	cmp	r3, #2
20001254:	d007      	beq.n	20001266 <HAL_GPIO_Init+0xe2>
20001256:	683b      	ldr	r3, [r7, #0]
20001258:	685b      	ldr	r3, [r3, #4]
2000125a:	2b11      	cmp	r3, #17
2000125c:	d003      	beq.n	20001266 <HAL_GPIO_Init+0xe2>
2000125e:	683b      	ldr	r3, [r7, #0]
20001260:	685b      	ldr	r3, [r3, #4]
20001262:	2b12      	cmp	r3, #18
20001264:	d12f      	bne.n	200012c6 <HAL_GPIO_Init+0x142>
20001266:	687b      	ldr	r3, [r7, #4]
20001268:	689b      	ldr	r3, [r3, #8]
2000126a:	61bb      	str	r3, [r7, #24]
2000126c:	69fb      	ldr	r3, [r7, #28]
2000126e:	005b      	lsls	r3, r3, #1
20001270:	461a      	mov	r2, r3
20001272:	2303      	movs	r3, #3
20001274:	4093      	lsls	r3, r2
20001276:	43db      	mvns	r3, r3
20001278:	69ba      	ldr	r2, [r7, #24]
2000127a:	4013      	ands	r3, r2
2000127c:	61bb      	str	r3, [r7, #24]
2000127e:	683b      	ldr	r3, [r7, #0]
20001280:	68db      	ldr	r3, [r3, #12]
20001282:	69fa      	ldr	r2, [r7, #28]
20001284:	0052      	lsls	r2, r2, #1
20001286:	4093      	lsls	r3, r2
20001288:	69ba      	ldr	r2, [r7, #24]
2000128a:	4313      	orrs	r3, r2
2000128c:	61bb      	str	r3, [r7, #24]
2000128e:	687b      	ldr	r3, [r7, #4]
20001290:	69ba      	ldr	r2, [r7, #24]
20001292:	609a      	str	r2, [r3, #8]
20001294:	687b      	ldr	r3, [r7, #4]
20001296:	685b      	ldr	r3, [r3, #4]
20001298:	61bb      	str	r3, [r7, #24]
2000129a:	69fb      	ldr	r3, [r7, #28]
2000129c:	2201      	movs	r2, #1
2000129e:	fa02 f303 	lsl.w	r3, r2, r3
200012a2:	43db      	mvns	r3, r3
200012a4:	69ba      	ldr	r2, [r7, #24]
200012a6:	4013      	ands	r3, r2
200012a8:	61bb      	str	r3, [r7, #24]
200012aa:	683b      	ldr	r3, [r7, #0]
200012ac:	685b      	ldr	r3, [r3, #4]
200012ae:	f003 0310 	and.w	r3, r3, #16
200012b2:	091a      	lsrs	r2, r3, #4
200012b4:	69fb      	ldr	r3, [r7, #28]
200012b6:	fa02 f303 	lsl.w	r3, r2, r3
200012ba:	69ba      	ldr	r2, [r7, #24]
200012bc:	4313      	orrs	r3, r2
200012be:	61bb      	str	r3, [r7, #24]
200012c0:	687b      	ldr	r3, [r7, #4]
200012c2:	69ba      	ldr	r2, [r7, #24]
200012c4:	605a      	str	r2, [r3, #4]
200012c6:	687b      	ldr	r3, [r7, #4]
200012c8:	68db      	ldr	r3, [r3, #12]
200012ca:	61bb      	str	r3, [r7, #24]
200012cc:	69fb      	ldr	r3, [r7, #28]
200012ce:	005b      	lsls	r3, r3, #1
200012d0:	461a      	mov	r2, r3
200012d2:	2303      	movs	r3, #3
200012d4:	4093      	lsls	r3, r2
200012d6:	43db      	mvns	r3, r3
200012d8:	69ba      	ldr	r2, [r7, #24]
200012da:	4013      	ands	r3, r2
200012dc:	61bb      	str	r3, [r7, #24]
200012de:	683b      	ldr	r3, [r7, #0]
200012e0:	689b      	ldr	r3, [r3, #8]
200012e2:	69fa      	ldr	r2, [r7, #28]
200012e4:	0052      	lsls	r2, r2, #1
200012e6:	4093      	lsls	r3, r2
200012e8:	69ba      	ldr	r2, [r7, #24]
200012ea:	4313      	orrs	r3, r2
200012ec:	61bb      	str	r3, [r7, #24]
200012ee:	687b      	ldr	r3, [r7, #4]
200012f0:	69ba      	ldr	r2, [r7, #24]
200012f2:	60da      	str	r2, [r3, #12]
200012f4:	683b      	ldr	r3, [r7, #0]
200012f6:	685b      	ldr	r3, [r3, #4]
200012f8:	f003 5380 	and.w	r3, r3, #268435456	; 0x10000000
200012fc:	2b00      	cmp	r3, #0
200012fe:	f000 80be 	beq.w	2000147e <HAL_GPIO_Init+0x2fa>
20001302:	4a65      	ldr	r2, [pc, #404]	; (20001498 <HAL_GPIO_Init+0x314>)
20001304:	4b64      	ldr	r3, [pc, #400]	; (20001498 <HAL_GPIO_Init+0x314>)
20001306:	6c5b      	ldr	r3, [r3, #68]	; 0x44
20001308:	f443 4380 	orr.w	r3, r3, #16384	; 0x4000
2000130c:	6453      	str	r3, [r2, #68]	; 0x44
2000130e:	4b62      	ldr	r3, [pc, #392]	; (20001498 <HAL_GPIO_Init+0x314>)
20001310:	6c5b      	ldr	r3, [r3, #68]	; 0x44
20001312:	f403 4380 	and.w	r3, r3, #16384	; 0x4000
20001316:	60fb      	str	r3, [r7, #12]
20001318:	68fb      	ldr	r3, [r7, #12]
2000131a:	4a60      	ldr	r2, [pc, #384]	; (2000149c <HAL_GPIO_Init+0x318>)
2000131c:	69fb      	ldr	r3, [r7, #28]
2000131e:	089b      	lsrs	r3, r3, #2
20001320:	3302      	adds	r3, #2
20001322:	f852 3023 	ldr.w	r3, [r2, r3, lsl #2]
20001326:	61bb      	str	r3, [r7, #24]
20001328:	69fb      	ldr	r3, [r7, #28]
2000132a:	f003 0303 	and.w	r3, r3, #3
2000132e:	009b      	lsls	r3, r3, #2
20001330:	461a      	mov	r2, r3
20001332:	230f      	movs	r3, #15
20001334:	4093      	lsls	r3, r2
20001336:	43db      	mvns	r3, r3
20001338:	69ba      	ldr	r2, [r7, #24]
2000133a:	4013      	ands	r3, r2
2000133c:	61bb      	str	r3, [r7, #24]
2000133e:	687b      	ldr	r3, [r7, #4]
20001340:	4a57      	ldr	r2, [pc, #348]	; (200014a0 <HAL_GPIO_Init+0x31c>)
20001342:	4293      	cmp	r3, r2
20001344:	d037      	beq.n	200013b6 <HAL_GPIO_Init+0x232>
20001346:	687b      	ldr	r3, [r7, #4]
20001348:	4a56      	ldr	r2, [pc, #344]	; (200014a4 <HAL_GPIO_Init+0x320>)
2000134a:	4293      	cmp	r3, r2
2000134c:	d031      	beq.n	200013b2 <HAL_GPIO_Init+0x22e>
2000134e:	687b      	ldr	r3, [r7, #4]
20001350:	4a55      	ldr	r2, [pc, #340]	; (200014a8 <HAL_GPIO_Init+0x324>)
20001352:	4293      	cmp	r3, r2
20001354:	d02b      	beq.n	200013ae <HAL_GPIO_Init+0x22a>
20001356:	687b      	ldr	r3, [r7, #4]
20001358:	4a54      	ldr	r2, [pc, #336]	; (200014ac <HAL_GPIO_Init+0x328>)
2000135a:	4293      	cmp	r3, r2
2000135c:	d025      	beq.n	200013aa <HAL_GPIO_Init+0x226>
2000135e:	687b      	ldr	r3, [r7, #4]
20001360:	4a53      	ldr	r2, [pc, #332]	; (200014b0 <HAL_GPIO_Init+0x32c>)
20001362:	4293      	cmp	r3, r2
20001364:	d01f      	beq.n	200013a6 <HAL_GPIO_Init+0x222>
20001366:	687b      	ldr	r3, [r7, #4]
20001368:	4a52      	ldr	r2, [pc, #328]	; (200014b4 <HAL_GPIO_Init+0x330>)
2000136a:	4293      	cmp	r3, r2
2000136c:	d019      	beq.n	200013a2 <HAL_GPIO_Init+0x21e>
2000136e:	687b      	ldr	r3, [r7, #4]
20001370:	4a51      	ldr	r2, [pc, #324]	; (200014b8 <HAL_GPIO_Init+0x334>)
20001372:	4293      	cmp	r3, r2
20001374:	d013      	beq.n	2000139e <HAL_GPIO_Init+0x21a>
20001376:	687b      	ldr	r3, [r7, #4]
20001378:	4a50      	ldr	r2, [pc, #320]	; (200014bc <HAL_GPIO_Init+0x338>)
2000137a:	4293      	cmp	r3, r2
2000137c:	d00d      	beq.n	2000139a <HAL_GPIO_Init+0x216>
2000137e:	687b      	ldr	r3, [r7, #4]
20001380:	4a4f      	ldr	r2, [pc, #316]	; (200014c0 <HAL_GPIO_Init+0x33c>)
20001382:	4293      	cmp	r3, r2
20001384:	d007      	beq.n	20001396 <HAL_GPIO_Init+0x212>
20001386:	687b      	ldr	r3, [r7, #4]
20001388:	4a4e      	ldr	r2, [pc, #312]	; (200014c4 <HAL_GPIO_Init+0x340>)
2000138a:	4293      	cmp	r3, r2
2000138c:	d101      	bne.n	20001392 <HAL_GPIO_Init+0x20e>
2000138e:	2309      	movs	r3, #9
20001390:	e012      	b.n	200013b8 <HAL_GPIO_Init+0x234>
20001392:	230a      	movs	r3, #10
20001394:	e010      	b.n	200013b8 <HAL_GPIO_Init+0x234>
20001396:	2308      	movs	r3, #8
20001398:	e00e      	b.n	200013b8 <HAL_GPIO_Init+0x234>
2000139a:	2307      	movs	r3, #7
2000139c:	e00c      	b.n	200013b8 <HAL_GPIO_Init+0x234>
2000139e:	2306      	movs	r3, #6
200013a0:	e00a      	b.n	200013b8 <HAL_GPIO_Init+0x234>
200013a2:	2305      	movs	r3, #5
200013a4:	e008      	b.n	200013b8 <HAL_GPIO_Init+0x234>
200013a6:	2304      	movs	r3, #4
200013a8:	e006      	b.n	200013b8 <HAL_GPIO_Init+0x234>
200013aa:	2303      	movs	r3, #3
200013ac:	e004      	b.n	200013b8 <HAL_GPIO_Init+0x234>
200013ae:	2302      	movs	r3, #2
200013b0:	e002      	b.n	200013b8 <HAL_GPIO_Init+0x234>
200013b2:	2301      	movs	r3, #1
200013b4:	e000      	b.n	200013b8 <HAL_GPIO_Init+0x234>
200013b6:	2300      	movs	r3, #0
200013b8:	69fa      	ldr	r2, [r7, #28]
200013ba:	f002 0203 	and.w	r2, r2, #3
200013be:	0092      	lsls	r2, r2, #2
200013c0:	4093      	lsls	r3, r2
200013c2:	69ba      	ldr	r2, [r7, #24]
200013c4:	4313      	orrs	r3, r2
200013c6:	61bb      	str	r3, [r7, #24]
200013c8:	4934      	ldr	r1, [pc, #208]	; (2000149c <HAL_GPIO_Init+0x318>)
200013ca:	69fb      	ldr	r3, [r7, #28]
200013cc:	089b      	lsrs	r3, r3, #2
200013ce:	3302      	adds	r3, #2
200013d0:	69ba      	ldr	r2, [r7, #24]
200013d2:	f841 2023 	str.w	r2, [r1, r3, lsl #2]
200013d6:	4b3c      	ldr	r3, [pc, #240]	; (200014c8 <HAL_GPIO_Init+0x344>)
200013d8:	681b      	ldr	r3, [r3, #0]
200013da:	61bb      	str	r3, [r7, #24]
200013dc:	693b      	ldr	r3, [r7, #16]
200013de:	43db      	mvns	r3, r3
200013e0:	69ba      	ldr	r2, [r7, #24]
200013e2:	4013      	ands	r3, r2
200013e4:	61bb      	str	r3, [r7, #24]
200013e6:	683b      	ldr	r3, [r7, #0]
200013e8:	685b      	ldr	r3, [r3, #4]
200013ea:	f403 3380 	and.w	r3, r3, #65536	; 0x10000
200013ee:	2b00      	cmp	r3, #0
200013f0:	d003      	beq.n	200013fa <HAL_GPIO_Init+0x276>
200013f2:	69ba      	ldr	r2, [r7, #24]
200013f4:	693b      	ldr	r3, [r7, #16]
200013f6:	4313      	orrs	r3, r2
200013f8:	61bb      	str	r3, [r7, #24]
200013fa:	4a33      	ldr	r2, [pc, #204]	; (200014c8 <HAL_GPIO_Init+0x344>)
200013fc:	69bb      	ldr	r3, [r7, #24]
200013fe:	6013      	str	r3, [r2, #0]
20001400:	4b31      	ldr	r3, [pc, #196]	; (200014c8 <HAL_GPIO_Init+0x344>)
20001402:	685b      	ldr	r3, [r3, #4]
20001404:	61bb      	str	r3, [r7, #24]
20001406:	693b      	ldr	r3, [r7, #16]
20001408:	43db      	mvns	r3, r3
2000140a:	69ba      	ldr	r2, [r7, #24]
2000140c:	4013      	ands	r3, r2
2000140e:	61bb      	str	r3, [r7, #24]
20001410:	683b      	ldr	r3, [r7, #0]
20001412:	685b      	ldr	r3, [r3, #4]
20001414:	f403 3300 	and.w	r3, r3, #131072	; 0x20000
20001418:	2b00      	cmp	r3, #0
2000141a:	d003      	beq.n	20001424 <HAL_GPIO_Init+0x2a0>
2000141c:	69ba      	ldr	r2, [r7, #24]
2000141e:	693b      	ldr	r3, [r7, #16]
20001420:	4313      	orrs	r3, r2
20001422:	61bb      	str	r3, [r7, #24]
20001424:	4a28      	ldr	r2, [pc, #160]	; (200014c8 <HAL_GPIO_Init+0x344>)
20001426:	69bb      	ldr	r3, [r7, #24]
20001428:	6053      	str	r3, [r2, #4]
2000142a:	4b27      	ldr	r3, [pc, #156]	; (200014c8 <HAL_GPIO_Init+0x344>)
2000142c:	689b      	ldr	r3, [r3, #8]
2000142e:	61bb      	str	r3, [r7, #24]
20001430:	693b      	ldr	r3, [r7, #16]
20001432:	43db      	mvns	r3, r3
20001434:	69ba      	ldr	r2, [r7, #24]
20001436:	4013      	ands	r3, r2
20001438:	61bb      	str	r3, [r7, #24]
2000143a:	683b      	ldr	r3, [r7, #0]
2000143c:	685b      	ldr	r3, [r3, #4]
2000143e:	f403 1380 	and.w	r3, r3, #1048576	; 0x100000
20001442:	2b00      	cmp	r3, #0
20001444:	d003      	beq.n	2000144e <HAL_GPIO_Init+0x2ca>
20001446:	69ba      	ldr	r2, [r7, #24]
20001448:	693b      	ldr	r3, [r7, #16]
2000144a:	4313      	orrs	r3, r2
2000144c:	61bb      	str	r3, [r7, #24]
2000144e:	4a1e      	ldr	r2, [pc, #120]	; (200014c8 <HAL_GPIO_Init+0x344>)
20001450:	69bb      	ldr	r3, [r7, #24]
20001452:	6093      	str	r3, [r2, #8]
20001454:	4b1c      	ldr	r3, [pc, #112]	; (200014c8 <HAL_GPIO_Init+0x344>)
20001456:	68db      	ldr	r3, [r3, #12]
20001458:	61bb      	str	r3, [r7, #24]
2000145a:	693b      	ldr	r3, [r7, #16]
2000145c:	43db      	mvns	r3, r3
2000145e:	69ba      	ldr	r2, [r7, #24]
20001460:	4013      	ands	r3, r2
20001462:	61bb      	str	r3, [r7, #24]
20001464:	683b      	ldr	r3, [r7, #0]
20001466:	685b      	ldr	r3, [r3, #4]
20001468:	f403 1300 	and.w	r3, r3, #2097152	; 0x200000
2000146c:	2b00      	cmp	r3, #0
2000146e:	d003      	beq.n	20001478 <HAL_GPIO_Init+0x2f4>
20001470:	69ba      	ldr	r2, [r7, #24]
20001472:	693b      	ldr	r3, [r7, #16]
20001474:	4313      	orrs	r3, r2
20001476:	61bb      	str	r3, [r7, #24]
20001478:	4a13      	ldr	r2, [pc, #76]	; (200014c8 <HAL_GPIO_Init+0x344>)
2000147a:	69bb      	ldr	r3, [r7, #24]
2000147c:	60d3      	str	r3, [r2, #12]
2000147e:	69fb      	ldr	r3, [r7, #28]
20001480:	3301      	adds	r3, #1
20001482:	61fb      	str	r3, [r7, #28]
20001484:	69fb      	ldr	r3, [r7, #28]
20001486:	2b0f      	cmp	r3, #15
20001488:	f67f ae8a 	bls.w	200011a0 <HAL_GPIO_Init+0x1c>
2000148c:	3724      	adds	r7, #36	; 0x24
2000148e:	46bd      	mov	sp, r7
20001490:	f85d 7b04 	ldr.w	r7, [sp], #4
20001494:	4770      	bx	lr
20001496:	bf00      	nop
20001498:	40023800 	.word	0x40023800
2000149c:	40013800 	.word	0x40013800
200014a0:	40020000 	.word	0x40020000
200014a4:	40020400 	.word	0x40020400
200014a8:	40020800 	.word	0x40020800
200014ac:	40020c00 	.word	0x40020c00
200014b0:	40021000 	.word	0x40021000
200014b4:	40021400 	.word	0x40021400
200014b8:	40021800 	.word	0x40021800
200014bc:	40021c00 	.word	0x40021c00
200014c0:	40022000 	.word	0x40022000
200014c4:	40022400 	.word	0x40022400
200014c8:	40013c00 	.word	0x40013c00

200014cc <HAL_GPIO_DeInit>:
200014cc:	b480      	push	{r7}
200014ce:	b087      	sub	sp, #28
200014d0:	af00      	add	r7, sp, #0
200014d2:	6078      	str	r0, [r7, #4]
200014d4:	6039      	str	r1, [r7, #0]
200014d6:	2300      	movs	r3, #0
200014d8:	613b      	str	r3, [r7, #16]
200014da:	2300      	movs	r3, #0
200014dc:	60fb      	str	r3, [r7, #12]
200014de:	2300      	movs	r3, #0
200014e0:	60bb      	str	r3, [r7, #8]
200014e2:	2300      	movs	r3, #0
200014e4:	617b      	str	r3, [r7, #20]
200014e6:	e0da      	b.n	2000169e <HAL_GPIO_DeInit+0x1d2>
200014e8:	697b      	ldr	r3, [r7, #20]
200014ea:	2201      	movs	r2, #1
200014ec:	fa02 f303 	lsl.w	r3, r2, r3
200014f0:	613b      	str	r3, [r7, #16]
200014f2:	683a      	ldr	r2, [r7, #0]
200014f4:	693b      	ldr	r3, [r7, #16]
200014f6:	4013      	ands	r3, r2
200014f8:	60fb      	str	r3, [r7, #12]
200014fa:	68fa      	ldr	r2, [r7, #12]
200014fc:	693b      	ldr	r3, [r7, #16]
200014fe:	429a      	cmp	r2, r3
20001500:	f040 80ca 	bne.w	20001698 <HAL_GPIO_DeInit+0x1cc>
20001504:	687b      	ldr	r3, [r7, #4]
20001506:	681a      	ldr	r2, [r3, #0]
20001508:	697b      	ldr	r3, [r7, #20]
2000150a:	005b      	lsls	r3, r3, #1
2000150c:	4619      	mov	r1, r3
2000150e:	2303      	movs	r3, #3
20001510:	408b      	lsls	r3, r1
20001512:	43db      	mvns	r3, r3
20001514:	401a      	ands	r2, r3
20001516:	687b      	ldr	r3, [r7, #4]
20001518:	601a      	str	r2, [r3, #0]
2000151a:	697b      	ldr	r3, [r7, #20]
2000151c:	08da      	lsrs	r2, r3, #3
2000151e:	697b      	ldr	r3, [r7, #20]
20001520:	08d9      	lsrs	r1, r3, #3
20001522:	687b      	ldr	r3, [r7, #4]
20001524:	3108      	adds	r1, #8
20001526:	f853 1021 	ldr.w	r1, [r3, r1, lsl #2]
2000152a:	697b      	ldr	r3, [r7, #20]
2000152c:	f003 0307 	and.w	r3, r3, #7
20001530:	009b      	lsls	r3, r3, #2
20001532:	4618      	mov	r0, r3
20001534:	230f      	movs	r3, #15
20001536:	4083      	lsls	r3, r0
20001538:	43db      	mvns	r3, r3
2000153a:	4019      	ands	r1, r3
2000153c:	687b      	ldr	r3, [r7, #4]
2000153e:	3208      	adds	r2, #8
20001540:	f843 1022 	str.w	r1, [r3, r2, lsl #2]
20001544:	687b      	ldr	r3, [r7, #4]
20001546:	689a      	ldr	r2, [r3, #8]
20001548:	697b      	ldr	r3, [r7, #20]
2000154a:	005b      	lsls	r3, r3, #1
2000154c:	4619      	mov	r1, r3
2000154e:	2303      	movs	r3, #3
20001550:	408b      	lsls	r3, r1
20001552:	43db      	mvns	r3, r3
20001554:	401a      	ands	r2, r3
20001556:	687b      	ldr	r3, [r7, #4]
20001558:	609a      	str	r2, [r3, #8]
2000155a:	687b      	ldr	r3, [r7, #4]
2000155c:	685a      	ldr	r2, [r3, #4]
2000155e:	697b      	ldr	r3, [r7, #20]
20001560:	2101      	movs	r1, #1
20001562:	fa01 f303 	lsl.w	r3, r1, r3
20001566:	43db      	mvns	r3, r3
20001568:	401a      	ands	r2, r3
2000156a:	687b      	ldr	r3, [r7, #4]
2000156c:	605a      	str	r2, [r3, #4]
2000156e:	687b      	ldr	r3, [r7, #4]
20001570:	68da      	ldr	r2, [r3, #12]
20001572:	697b      	ldr	r3, [r7, #20]
20001574:	005b      	lsls	r3, r3, #1
20001576:	4619      	mov	r1, r3
20001578:	2303      	movs	r3, #3
2000157a:	408b      	lsls	r3, r1
2000157c:	43db      	mvns	r3, r3
2000157e:	401a      	ands	r2, r3
20001580:	687b      	ldr	r3, [r7, #4]
20001582:	60da      	str	r2, [r3, #12]
20001584:	4a4a      	ldr	r2, [pc, #296]	; (200016b0 <HAL_GPIO_DeInit+0x1e4>)
20001586:	697b      	ldr	r3, [r7, #20]
20001588:	089b      	lsrs	r3, r3, #2
2000158a:	3302      	adds	r3, #2
2000158c:	f852 3023 	ldr.w	r3, [r2, r3, lsl #2]
20001590:	60bb      	str	r3, [r7, #8]
20001592:	697b      	ldr	r3, [r7, #20]
20001594:	f003 0303 	and.w	r3, r3, #3
20001598:	009b      	lsls	r3, r3, #2
2000159a:	461a      	mov	r2, r3
2000159c:	230f      	movs	r3, #15
2000159e:	4093      	lsls	r3, r2
200015a0:	68ba      	ldr	r2, [r7, #8]
200015a2:	4013      	ands	r3, r2
200015a4:	60bb      	str	r3, [r7, #8]
200015a6:	687b      	ldr	r3, [r7, #4]
200015a8:	4a42      	ldr	r2, [pc, #264]	; (200016b4 <HAL_GPIO_DeInit+0x1e8>)
200015aa:	4293      	cmp	r3, r2
200015ac:	d037      	beq.n	2000161e <HAL_GPIO_DeInit+0x152>
200015ae:	687b      	ldr	r3, [r7, #4]
200015b0:	4a41      	ldr	r2, [pc, #260]	; (200016b8 <HAL_GPIO_DeInit+0x1ec>)
200015b2:	4293      	cmp	r3, r2
200015b4:	d031      	beq.n	2000161a <HAL_GPIO_DeInit+0x14e>
200015b6:	687b      	ldr	r3, [r7, #4]
200015b8:	4a40      	ldr	r2, [pc, #256]	; (200016bc <HAL_GPIO_DeInit+0x1f0>)
200015ba:	4293      	cmp	r3, r2
200015bc:	d02b      	beq.n	20001616 <HAL_GPIO_DeInit+0x14a>
200015be:	687b      	ldr	r3, [r7, #4]
200015c0:	4a3f      	ldr	r2, [pc, #252]	; (200016c0 <HAL_GPIO_DeInit+0x1f4>)
200015c2:	4293      	cmp	r3, r2
200015c4:	d025      	beq.n	20001612 <HAL_GPIO_DeInit+0x146>
200015c6:	687b      	ldr	r3, [r7, #4]
200015c8:	4a3e      	ldr	r2, [pc, #248]	; (200016c4 <HAL_GPIO_DeInit+0x1f8>)
200015ca:	4293      	cmp	r3, r2
200015cc:	d01f      	beq.n	2000160e <HAL_GPIO_DeInit+0x142>
200015ce:	687b      	ldr	r3, [r7, #4]
200015d0:	4a3d      	ldr	r2, [pc, #244]	; (200016c8 <HAL_GPIO_DeInit+0x1fc>)
200015d2:	4293      	cmp	r3, r2
200015d4:	d019      	beq.n	2000160a <HAL_GPIO_DeInit+0x13e>
200015d6:	687b      	ldr	r3, [r7, #4]
200015d8:	4a3c      	ldr	r2, [pc, #240]	; (200016cc <HAL_GPIO_DeInit+0x200>)
200015da:	4293      	cmp	r3, r2
200015dc:	d013      	beq.n	20001606 <HAL_GPIO_DeInit+0x13a>
200015de:	687b      	ldr	r3, [r7, #4]
200015e0:	4a3b      	ldr	r2, [pc, #236]	; (200016d0 <HAL_GPIO_DeInit+0x204>)
200015e2:	4293      	cmp	r3, r2
200015e4:	d00d      	beq.n	20001602 <HAL_GPIO_DeInit+0x136>
200015e6:	687b      	ldr	r3, [r7, #4]
200015e8:	4a3a      	ldr	r2, [pc, #232]	; (200016d4 <HAL_GPIO_DeInit+0x208>)
200015ea:	4293      	cmp	r3, r2
200015ec:	d007      	beq.n	200015fe <HAL_GPIO_DeInit+0x132>
200015ee:	687b      	ldr	r3, [r7, #4]
200015f0:	4a39      	ldr	r2, [pc, #228]	; (200016d8 <HAL_GPIO_DeInit+0x20c>)
200015f2:	4293      	cmp	r3, r2
200015f4:	d101      	bne.n	200015fa <HAL_GPIO_DeInit+0x12e>
200015f6:	2309      	movs	r3, #9
200015f8:	e012      	b.n	20001620 <HAL_GPIO_DeInit+0x154>
200015fa:	230a      	movs	r3, #10
200015fc:	e010      	b.n	20001620 <HAL_GPIO_DeInit+0x154>
200015fe:	2308      	movs	r3, #8
20001600:	e00e      	b.n	20001620 <HAL_GPIO_DeInit+0x154>
20001602:	2307      	movs	r3, #7
20001604:	e00c      	b.n	20001620 <HAL_GPIO_DeInit+0x154>
20001606:	2306      	movs	r3, #6
20001608:	e00a      	b.n	20001620 <HAL_GPIO_DeInit+0x154>
2000160a:	2305      	movs	r3, #5
2000160c:	e008      	b.n	20001620 <HAL_GPIO_DeInit+0x154>
2000160e:	2304      	movs	r3, #4
20001610:	e006      	b.n	20001620 <HAL_GPIO_DeInit+0x154>
20001612:	2303      	movs	r3, #3
20001614:	e004      	b.n	20001620 <HAL_GPIO_DeInit+0x154>
20001616:	2302      	movs	r3, #2
20001618:	e002      	b.n	20001620 <HAL_GPIO_DeInit+0x154>
2000161a:	2301      	movs	r3, #1
2000161c:	e000      	b.n	20001620 <HAL_GPIO_DeInit+0x154>
2000161e:	2300      	movs	r3, #0
20001620:	697a      	ldr	r2, [r7, #20]
20001622:	f002 0203 	and.w	r2, r2, #3
20001626:	0092      	lsls	r2, r2, #2
20001628:	fa03 f202 	lsl.w	r2, r3, r2
2000162c:	68bb      	ldr	r3, [r7, #8]
2000162e:	429a      	cmp	r2, r3
20001630:	d132      	bne.n	20001698 <HAL_GPIO_DeInit+0x1cc>
20001632:	697b      	ldr	r3, [r7, #20]
20001634:	f003 0303 	and.w	r3, r3, #3
20001638:	009b      	lsls	r3, r3, #2
2000163a:	461a      	mov	r2, r3
2000163c:	230f      	movs	r3, #15
2000163e:	4093      	lsls	r3, r2
20001640:	60bb      	str	r3, [r7, #8]
20001642:	481b      	ldr	r0, [pc, #108]	; (200016b0 <HAL_GPIO_DeInit+0x1e4>)
20001644:	697b      	ldr	r3, [r7, #20]
20001646:	089b      	lsrs	r3, r3, #2
20001648:	4919      	ldr	r1, [pc, #100]	; (200016b0 <HAL_GPIO_DeInit+0x1e4>)
2000164a:	697a      	ldr	r2, [r7, #20]
2000164c:	0892      	lsrs	r2, r2, #2
2000164e:	3202      	adds	r2, #2
20001650:	f851 1022 	ldr.w	r1, [r1, r2, lsl #2]
20001654:	68ba      	ldr	r2, [r7, #8]
20001656:	43d2      	mvns	r2, r2
20001658:	400a      	ands	r2, r1
2000165a:	3302      	adds	r3, #2
2000165c:	f840 2023 	str.w	r2, [r0, r3, lsl #2]
20001660:	491e      	ldr	r1, [pc, #120]	; (200016dc <HAL_GPIO_DeInit+0x210>)
20001662:	4b1e      	ldr	r3, [pc, #120]	; (200016dc <HAL_GPIO_DeInit+0x210>)
20001664:	681a      	ldr	r2, [r3, #0]
20001666:	68fb      	ldr	r3, [r7, #12]
20001668:	43db      	mvns	r3, r3
2000166a:	4013      	ands	r3, r2
2000166c:	600b      	str	r3, [r1, #0]
2000166e:	491b      	ldr	r1, [pc, #108]	; (200016dc <HAL_GPIO_DeInit+0x210>)
20001670:	4b1a      	ldr	r3, [pc, #104]	; (200016dc <HAL_GPIO_DeInit+0x210>)
20001672:	685a      	ldr	r2, [r3, #4]
20001674:	68fb      	ldr	r3, [r7, #12]
20001676:	43db      	mvns	r3, r3
20001678:	4013      	ands	r3, r2
2000167a:	604b      	str	r3, [r1, #4]
2000167c:	4917      	ldr	r1, [pc, #92]	; (200016dc <HAL_GPIO_DeInit+0x210>)
2000167e:	4b17      	ldr	r3, [pc, #92]	; (200016dc <HAL_GPIO_DeInit+0x210>)
20001680:	689a      	ldr	r2, [r3, #8]
20001682:	68fb      	ldr	r3, [r7, #12]
20001684:	43db      	mvns	r3, r3
20001686:	4013      	ands	r3, r2
20001688:	608b      	str	r3, [r1, #8]
2000168a:	4914      	ldr	r1, [pc, #80]	; (200016dc <HAL_GPIO_DeInit+0x210>)
2000168c:	4b13      	ldr	r3, [pc, #76]	; (200016dc <HAL_GPIO_DeInit+0x210>)
2000168e:	68da      	ldr	r2, [r3, #12]
20001690:	68fb      	ldr	r3, [r7, #12]
20001692:	43db      	mvns	r3, r3
20001694:	4013      	ands	r3, r2
20001696:	60cb      	str	r3, [r1, #12]
20001698:	697b      	ldr	r3, [r7, #20]
2000169a:	3301      	adds	r3, #1
2000169c:	617b      	str	r3, [r7, #20]
2000169e:	697b      	ldr	r3, [r7, #20]
200016a0:	2b0f      	cmp	r3, #15
200016a2:	f67f af21 	bls.w	200014e8 <HAL_GPIO_DeInit+0x1c>
200016a6:	371c      	adds	r7, #28
200016a8:	46bd      	mov	sp, r7
200016aa:	f85d 7b04 	ldr.w	r7, [sp], #4
200016ae:	4770      	bx	lr
200016b0:	40013800 	.word	0x40013800
200016b4:	40020000 	.word	0x40020000
200016b8:	40020400 	.word	0x40020400
200016bc:	40020800 	.word	0x40020800
200016c0:	40020c00 	.word	0x40020c00
200016c4:	40021000 	.word	0x40021000
200016c8:	40021400 	.word	0x40021400
200016cc:	40021800 	.word	0x40021800
200016d0:	40021c00 	.word	0x40021c00
200016d4:	40022000 	.word	0x40022000
200016d8:	40022400 	.word	0x40022400
200016dc:	40013c00 	.word	0x40013c00

200016e0 <HAL_GPIO_ReadPin>:
200016e0:	b480      	push	{r7}
200016e2:	b085      	sub	sp, #20
200016e4:	af00      	add	r7, sp, #0
200016e6:	6078      	str	r0, [r7, #4]
200016e8:	460b      	mov	r3, r1
200016ea:	807b      	strh	r3, [r7, #2]
200016ec:	687b      	ldr	r3, [r7, #4]
200016ee:	691a      	ldr	r2, [r3, #16]
200016f0:	887b      	ldrh	r3, [r7, #2]
200016f2:	4013      	ands	r3, r2
200016f4:	2b00      	cmp	r3, #0
200016f6:	d002      	beq.n	200016fe <HAL_GPIO_ReadPin+0x1e>
200016f8:	2301      	movs	r3, #1
200016fa:	73fb      	strb	r3, [r7, #15]
200016fc:	e001      	b.n	20001702 <HAL_GPIO_ReadPin+0x22>
200016fe:	2300      	movs	r3, #0
20001700:	73fb      	strb	r3, [r7, #15]
20001702:	7bfb      	ldrb	r3, [r7, #15]
20001704:	4618      	mov	r0, r3
20001706:	3714      	adds	r7, #20
20001708:	46bd      	mov	sp, r7
2000170a:	f85d 7b04 	ldr.w	r7, [sp], #4
2000170e:	4770      	bx	lr

20001710 <HAL_GPIO_WritePin>:
20001710:	b480      	push	{r7}
20001712:	b083      	sub	sp, #12
20001714:	af00      	add	r7, sp, #0
20001716:	6078      	str	r0, [r7, #4]
20001718:	460b      	mov	r3, r1
2000171a:	807b      	strh	r3, [r7, #2]
2000171c:	4613      	mov	r3, r2
2000171e:	707b      	strb	r3, [r7, #1]
20001720:	787b      	ldrb	r3, [r7, #1]
20001722:	2b00      	cmp	r3, #0
20001724:	d003      	beq.n	2000172e <HAL_GPIO_WritePin+0x1e>
20001726:	887a      	ldrh	r2, [r7, #2]
20001728:	687b      	ldr	r3, [r7, #4]
2000172a:	619a      	str	r2, [r3, #24]
2000172c:	e003      	b.n	20001736 <HAL_GPIO_WritePin+0x26>
2000172e:	887b      	ldrh	r3, [r7, #2]
20001730:	041a      	lsls	r2, r3, #16
20001732:	687b      	ldr	r3, [r7, #4]
20001734:	619a      	str	r2, [r3, #24]
20001736:	370c      	adds	r7, #12
20001738:	46bd      	mov	sp, r7
2000173a:	f85d 7b04 	ldr.w	r7, [sp], #4
2000173e:	4770      	bx	lr

20001740 <HAL_GPIO_TogglePin>:
20001740:	b480      	push	{r7}
20001742:	b083      	sub	sp, #12
20001744:	af00      	add	r7, sp, #0
20001746:	6078      	str	r0, [r7, #4]
20001748:	460b      	mov	r3, r1
2000174a:	807b      	strh	r3, [r7, #2]
2000174c:	687b      	ldr	r3, [r7, #4]
2000174e:	695a      	ldr	r2, [r3, #20]
20001750:	887b      	ldrh	r3, [r7, #2]
20001752:	405a      	eors	r2, r3
20001754:	687b      	ldr	r3, [r7, #4]
20001756:	615a      	str	r2, [r3, #20]
20001758:	370c      	adds	r7, #12
2000175a:	46bd      	mov	sp, r7
2000175c:	f85d 7b04 	ldr.w	r7, [sp], #4
20001760:	4770      	bx	lr
20001762:	bf00      	nop

20001764 <HAL_GPIO_LockPin>:
20001764:	b480      	push	{r7}
20001766:	b085      	sub	sp, #20
20001768:	af00      	add	r7, sp, #0
2000176a:	6078      	str	r0, [r7, #4]
2000176c:	460b      	mov	r3, r1
2000176e:	807b      	strh	r3, [r7, #2]
20001770:	f44f 3380 	mov.w	r3, #65536	; 0x10000
20001774:	60fb      	str	r3, [r7, #12]
20001776:	887a      	ldrh	r2, [r7, #2]
20001778:	68fb      	ldr	r3, [r7, #12]
2000177a:	4313      	orrs	r3, r2
2000177c:	60fb      	str	r3, [r7, #12]
2000177e:	68fa      	ldr	r2, [r7, #12]
20001780:	687b      	ldr	r3, [r7, #4]
20001782:	61da      	str	r2, [r3, #28]
20001784:	887a      	ldrh	r2, [r7, #2]
20001786:	687b      	ldr	r3, [r7, #4]
20001788:	61da      	str	r2, [r3, #28]
2000178a:	68fa      	ldr	r2, [r7, #12]
2000178c:	687b      	ldr	r3, [r7, #4]
2000178e:	61da      	str	r2, [r3, #28]
20001790:	687b      	ldr	r3, [r7, #4]
20001792:	69db      	ldr	r3, [r3, #28]
20001794:	60fb      	str	r3, [r7, #12]
20001796:	687b      	ldr	r3, [r7, #4]
20001798:	69db      	ldr	r3, [r3, #28]
2000179a:	f403 3380 	and.w	r3, r3, #65536	; 0x10000
2000179e:	2b00      	cmp	r3, #0
200017a0:	d001      	beq.n	200017a6 <HAL_GPIO_LockPin+0x42>
200017a2:	2300      	movs	r3, #0
200017a4:	e000      	b.n	200017a8 <HAL_GPIO_LockPin+0x44>
200017a6:	2301      	movs	r3, #1
200017a8:	4618      	mov	r0, r3
200017aa:	3714      	adds	r7, #20
200017ac:	46bd      	mov	sp, r7
200017ae:	f85d 7b04 	ldr.w	r7, [sp], #4
200017b2:	4770      	bx	lr

200017b4 <HAL_GPIO_EXTI_IRQHandler>:
200017b4:	b580      	push	{r7, lr}
200017b6:	b082      	sub	sp, #8
200017b8:	af00      	add	r7, sp, #0
200017ba:	4603      	mov	r3, r0
200017bc:	80fb      	strh	r3, [r7, #6]
200017be:	4b08      	ldr	r3, [pc, #32]	; (200017e0 <HAL_GPIO_EXTI_IRQHandler+0x2c>)
200017c0:	695a      	ldr	r2, [r3, #20]
200017c2:	88fb      	ldrh	r3, [r7, #6]
200017c4:	4013      	ands	r3, r2
200017c6:	2b00      	cmp	r3, #0
200017c8:	d006      	beq.n	200017d8 <HAL_GPIO_EXTI_IRQHandler+0x24>
200017ca:	4a05      	ldr	r2, [pc, #20]	; (200017e0 <HAL_GPIO_EXTI_IRQHandler+0x2c>)
200017cc:	88fb      	ldrh	r3, [r7, #6]
200017ce:	6153      	str	r3, [r2, #20]
200017d0:	88fb      	ldrh	r3, [r7, #6]
200017d2:	4618      	mov	r0, r3
200017d4:	f000 f806 	bl	200017e4 <HAL_GPIO_EXTI_Callback>
200017d8:	3708      	adds	r7, #8
200017da:	46bd      	mov	sp, r7
200017dc:	bd80      	pop	{r7, pc}
200017de:	bf00      	nop
200017e0:	40013c00 	.word	0x40013c00

200017e4 <HAL_GPIO_EXTI_Callback>:
200017e4:	b480      	push	{r7}
200017e6:	b083      	sub	sp, #12
200017e8:	af00      	add	r7, sp, #0
200017ea:	4603      	mov	r3, r0
200017ec:	80fb      	strh	r3, [r7, #6]
200017ee:	370c      	adds	r7, #12
200017f0:	46bd      	mov	sp, r7
200017f2:	f85d 7b04 	ldr.w	r7, [sp], #4
200017f6:	4770      	bx	lr

200017f8 <HAL_RCC_DeInit>:
200017f8:	b480      	push	{r7}
200017fa:	af00      	add	r7, sp, #0
200017fc:	4a1a      	ldr	r2, [pc, #104]	; (20001868 <HAL_RCC_DeInit+0x70>)
200017fe:	4b1a      	ldr	r3, [pc, #104]	; (20001868 <HAL_RCC_DeInit+0x70>)
20001800:	681b      	ldr	r3, [r3, #0]
20001802:	f043 0381 	orr.w	r3, r3, #129	; 0x81
20001806:	6013      	str	r3, [r2, #0]
20001808:	4b17      	ldr	r3, [pc, #92]	; (20001868 <HAL_RCC_DeInit+0x70>)
2000180a:	2200      	movs	r2, #0
2000180c:	609a      	str	r2, [r3, #8]
2000180e:	4a16      	ldr	r2, [pc, #88]	; (20001868 <HAL_RCC_DeInit+0x70>)
20001810:	4b15      	ldr	r3, [pc, #84]	; (20001868 <HAL_RCC_DeInit+0x70>)
20001812:	681b      	ldr	r3, [r3, #0]
20001814:	f023 63a1 	bic.w	r3, r3, #84410368	; 0x5080000
20001818:	f423 3380 	bic.w	r3, r3, #65536	; 0x10000
2000181c:	6013      	str	r3, [r2, #0]
2000181e:	4b12      	ldr	r3, [pc, #72]	; (20001868 <HAL_RCC_DeInit+0x70>)
20001820:	2200      	movs	r2, #0
20001822:	605a      	str	r2, [r3, #4]
20001824:	4910      	ldr	r1, [pc, #64]	; (20001868 <HAL_RCC_DeInit+0x70>)
20001826:	4b10      	ldr	r3, [pc, #64]	; (20001868 <HAL_RCC_DeInit+0x70>)
20001828:	685a      	ldr	r2, [r3, #4]
2000182a:	4b10      	ldr	r3, [pc, #64]	; (2000186c <HAL_RCC_DeInit+0x74>)
2000182c:	4313      	orrs	r3, r2
2000182e:	604b      	str	r3, [r1, #4]
20001830:	4b0d      	ldr	r3, [pc, #52]	; (20001868 <HAL_RCC_DeInit+0x70>)
20001832:	2200      	movs	r2, #0
20001834:	f8c3 2084 	str.w	r2, [r3, #132]	; 0x84
20001838:	4a0b      	ldr	r2, [pc, #44]	; (20001868 <HAL_RCC_DeInit+0x70>)
2000183a:	4b0b      	ldr	r3, [pc, #44]	; (20001868 <HAL_RCC_DeInit+0x70>)
2000183c:	f8d3 3084 	ldr.w	r3, [r3, #132]	; 0x84
20001840:	f043 5300 	orr.w	r3, r3, #536870912	; 0x20000000
20001844:	f443 5340 	orr.w	r3, r3, #12288	; 0x3000
20001848:	f8c2 3084 	str.w	r3, [r2, #132]	; 0x84
2000184c:	4a06      	ldr	r2, [pc, #24]	; (20001868 <HAL_RCC_DeInit+0x70>)
2000184e:	4b06      	ldr	r3, [pc, #24]	; (20001868 <HAL_RCC_DeInit+0x70>)
20001850:	681b      	ldr	r3, [r3, #0]
20001852:	f423 2380 	bic.w	r3, r3, #262144	; 0x40000
20001856:	6013      	str	r3, [r2, #0]
20001858:	4b03      	ldr	r3, [pc, #12]	; (20001868 <HAL_RCC_DeInit+0x70>)
2000185a:	2200      	movs	r2, #0
2000185c:	60da      	str	r2, [r3, #12]
2000185e:	46bd      	mov	sp, r7
20001860:	f85d 7b04 	ldr.w	r7, [sp], #4
20001864:	4770      	bx	lr
20001866:	bf00      	nop
20001868:	40023800 	.word	0x40023800
2000186c:	04003010 	.word	0x04003010

20001870 <HAL_RCC_OscConfig>:
20001870:	b580      	push	{r7, lr}
20001872:	b098      	sub	sp, #96	; 0x60
20001874:	af00      	add	r7, sp, #0
20001876:	6078      	str	r0, [r7, #4]
20001878:	2300      	movs	r3, #0
2000187a:	65fb      	str	r3, [r7, #92]	; 0x5c
2000187c:	687b      	ldr	r3, [r7, #4]
2000187e:	681b      	ldr	r3, [r3, #0]
20001880:	f003 0301 	and.w	r3, r3, #1
20001884:	2b00      	cmp	r3, #0
20001886:	d06a      	beq.n	2000195e <HAL_RCC_OscConfig+0xee>
20001888:	4ba6      	ldr	r3, [pc, #664]	; (20001b24 <HAL_RCC_OscConfig+0x2b4>)
2000188a:	689b      	ldr	r3, [r3, #8]
2000188c:	f003 030c 	and.w	r3, r3, #12
20001890:	2b04      	cmp	r3, #4
20001892:	d00b      	beq.n	200018ac <HAL_RCC_OscConfig+0x3c>
20001894:	4ba3      	ldr	r3, [pc, #652]	; (20001b24 <HAL_RCC_OscConfig+0x2b4>)
20001896:	689b      	ldr	r3, [r3, #8]
20001898:	f003 030c 	and.w	r3, r3, #12
2000189c:	2b08      	cmp	r3, #8
2000189e:	d112      	bne.n	200018c6 <HAL_RCC_OscConfig+0x56>
200018a0:	4ba0      	ldr	r3, [pc, #640]	; (20001b24 <HAL_RCC_OscConfig+0x2b4>)
200018a2:	685b      	ldr	r3, [r3, #4]
200018a4:	f403 0380 	and.w	r3, r3, #4194304	; 0x400000
200018a8:	2b00      	cmp	r3, #0
200018aa:	d00c      	beq.n	200018c6 <HAL_RCC_OscConfig+0x56>
200018ac:	4b9d      	ldr	r3, [pc, #628]	; (20001b24 <HAL_RCC_OscConfig+0x2b4>)
200018ae:	681b      	ldr	r3, [r3, #0]
200018b0:	f403 3300 	and.w	r3, r3, #131072	; 0x20000
200018b4:	2b00      	cmp	r3, #0
200018b6:	d005      	beq.n	200018c4 <HAL_RCC_OscConfig+0x54>
200018b8:	687b      	ldr	r3, [r7, #4]
200018ba:	685b      	ldr	r3, [r3, #4]
200018bc:	2b00      	cmp	r3, #0
200018be:	d101      	bne.n	200018c4 <HAL_RCC_OscConfig+0x54>
200018c0:	2301      	movs	r3, #1
200018c2:	e224      	b.n	20001d0e <HAL_RCC_OscConfig+0x49e>
200018c4:	e04b      	b.n	2000195e <HAL_RCC_OscConfig+0xee>
200018c6:	4b98      	ldr	r3, [pc, #608]	; (20001b28 <HAL_RCC_OscConfig+0x2b8>)
200018c8:	2200      	movs	r2, #0
200018ca:	701a      	strb	r2, [r3, #0]
200018cc:	f001 fb8a 	bl	20002fe4 <HAL_GetTick>
200018d0:	65f8      	str	r0, [r7, #92]	; 0x5c
200018d2:	e00a      	b.n	200018ea <HAL_RCC_OscConfig+0x7a>
200018d4:	f001 fb86 	bl	20002fe4 <HAL_GetTick>
200018d8:	4602      	mov	r2, r0
200018da:	6dfb      	ldr	r3, [r7, #92]	; 0x5c
200018dc:	1ad3      	subs	r3, r2, r3
200018de:	f241 3288 	movw	r2, #5000	; 0x1388
200018e2:	4293      	cmp	r3, r2
200018e4:	d901      	bls.n	200018ea <HAL_RCC_OscConfig+0x7a>
200018e6:	2303      	movs	r3, #3
200018e8:	e211      	b.n	20001d0e <HAL_RCC_OscConfig+0x49e>
200018ea:	4b8e      	ldr	r3, [pc, #568]	; (20001b24 <HAL_RCC_OscConfig+0x2b4>)
200018ec:	681b      	ldr	r3, [r3, #0]
200018ee:	f403 3300 	and.w	r3, r3, #131072	; 0x20000
200018f2:	2b00      	cmp	r3, #0
200018f4:	d1ee      	bne.n	200018d4 <HAL_RCC_OscConfig+0x64>
200018f6:	4a8c      	ldr	r2, [pc, #560]	; (20001b28 <HAL_RCC_OscConfig+0x2b8>)
200018f8:	687b      	ldr	r3, [r7, #4]
200018fa:	685b      	ldr	r3, [r3, #4]
200018fc:	b2db      	uxtb	r3, r3
200018fe:	7013      	strb	r3, [r2, #0]
20001900:	687b      	ldr	r3, [r7, #4]
20001902:	685b      	ldr	r3, [r3, #4]
20001904:	2b00      	cmp	r3, #0
20001906:	d015      	beq.n	20001934 <HAL_RCC_OscConfig+0xc4>
20001908:	f001 fb6c 	bl	20002fe4 <HAL_GetTick>
2000190c:	65f8      	str	r0, [r7, #92]	; 0x5c
2000190e:	e00a      	b.n	20001926 <HAL_RCC_OscConfig+0xb6>
20001910:	f001 fb68 	bl	20002fe4 <HAL_GetTick>
20001914:	4602      	mov	r2, r0
20001916:	6dfb      	ldr	r3, [r7, #92]	; 0x5c
20001918:	1ad3      	subs	r3, r2, r3
2000191a:	f241 3288 	movw	r2, #5000	; 0x1388
2000191e:	4293      	cmp	r3, r2
20001920:	d901      	bls.n	20001926 <HAL_RCC_OscConfig+0xb6>
20001922:	2303      	movs	r3, #3
20001924:	e1f3      	b.n	20001d0e <HAL_RCC_OscConfig+0x49e>
20001926:	4b7f      	ldr	r3, [pc, #508]	; (20001b24 <HAL_RCC_OscConfig+0x2b4>)
20001928:	681b      	ldr	r3, [r3, #0]
2000192a:	f403 3300 	and.w	r3, r3, #131072	; 0x20000
2000192e:	2b00      	cmp	r3, #0
20001930:	d0ee      	beq.n	20001910 <HAL_RCC_OscConfig+0xa0>
20001932:	e014      	b.n	2000195e <HAL_RCC_OscConfig+0xee>
20001934:	f001 fb56 	bl	20002fe4 <HAL_GetTick>
20001938:	65f8      	str	r0, [r7, #92]	; 0x5c
2000193a:	e00a      	b.n	20001952 <HAL_RCC_OscConfig+0xe2>
2000193c:	f001 fb52 	bl	20002fe4 <HAL_GetTick>
20001940:	4602      	mov	r2, r0
20001942:	6dfb      	ldr	r3, [r7, #92]	; 0x5c
20001944:	1ad3      	subs	r3, r2, r3
20001946:	f241 3288 	movw	r2, #5000	; 0x1388
2000194a:	4293      	cmp	r3, r2
2000194c:	d901      	bls.n	20001952 <HAL_RCC_OscConfig+0xe2>
2000194e:	2303      	movs	r3, #3
20001950:	e1dd      	b.n	20001d0e <HAL_RCC_OscConfig+0x49e>
20001952:	4b74      	ldr	r3, [pc, #464]	; (20001b24 <HAL_RCC_OscConfig+0x2b4>)
20001954:	681b      	ldr	r3, [r3, #0]
20001956:	f403 3300 	and.w	r3, r3, #131072	; 0x20000
2000195a:	2b00      	cmp	r3, #0
2000195c:	d1ee      	bne.n	2000193c <HAL_RCC_OscConfig+0xcc>
2000195e:	687b      	ldr	r3, [r7, #4]
20001960:	681b      	ldr	r3, [r3, #0]
20001962:	f003 0302 	and.w	r3, r3, #2
20001966:	2b00      	cmp	r3, #0
20001968:	d07f      	beq.n	20001a6a <HAL_RCC_OscConfig+0x1fa>
2000196a:	4b6e      	ldr	r3, [pc, #440]	; (20001b24 <HAL_RCC_OscConfig+0x2b4>)
2000196c:	689b      	ldr	r3, [r3, #8]
2000196e:	f003 030c 	and.w	r3, r3, #12
20001972:	2b00      	cmp	r3, #0
20001974:	d00b      	beq.n	2000198e <HAL_RCC_OscConfig+0x11e>
20001976:	4b6b      	ldr	r3, [pc, #428]	; (20001b24 <HAL_RCC_OscConfig+0x2b4>)
20001978:	689b      	ldr	r3, [r3, #8]
2000197a:	f003 030c 	and.w	r3, r3, #12
2000197e:	2b08      	cmp	r3, #8
20001980:	d12a      	bne.n	200019d8 <HAL_RCC_OscConfig+0x168>
20001982:	4b68      	ldr	r3, [pc, #416]	; (20001b24 <HAL_RCC_OscConfig+0x2b4>)
20001984:	685b      	ldr	r3, [r3, #4]
20001986:	f403 0380 	and.w	r3, r3, #4194304	; 0x400000
2000198a:	2b00      	cmp	r3, #0
2000198c:	d124      	bne.n	200019d8 <HAL_RCC_OscConfig+0x168>
2000198e:	4b65      	ldr	r3, [pc, #404]	; (20001b24 <HAL_RCC_OscConfig+0x2b4>)
20001990:	681b      	ldr	r3, [r3, #0]
20001992:	f003 0302 	and.w	r3, r3, #2
20001996:	2b00      	cmp	r3, #0
20001998:	d005      	beq.n	200019a6 <HAL_RCC_OscConfig+0x136>
2000199a:	687b      	ldr	r3, [r7, #4]
2000199c:	68db      	ldr	r3, [r3, #12]
2000199e:	2b01      	cmp	r3, #1
200019a0:	d001      	beq.n	200019a6 <HAL_RCC_OscConfig+0x136>
200019a2:	2301      	movs	r3, #1
200019a4:	e1b3      	b.n	20001d0e <HAL_RCC_OscConfig+0x49e>
200019a6:	485f      	ldr	r0, [pc, #380]	; (20001b24 <HAL_RCC_OscConfig+0x2b4>)
200019a8:	4b5e      	ldr	r3, [pc, #376]	; (20001b24 <HAL_RCC_OscConfig+0x2b4>)
200019aa:	681b      	ldr	r3, [r3, #0]
200019ac:	f023 02f8 	bic.w	r2, r3, #248	; 0xf8
200019b0:	687b      	ldr	r3, [r7, #4]
200019b2:	691b      	ldr	r3, [r3, #16]
200019b4:	21f8      	movs	r1, #248	; 0xf8
200019b6:	65b9      	str	r1, [r7, #88]	; 0x58
200019b8:	6db9      	ldr	r1, [r7, #88]	; 0x58
200019ba:	fa91 f1a1 	rbit	r1, r1
200019be:	6579      	str	r1, [r7, #84]	; 0x54
200019c0:	6d79      	ldr	r1, [r7, #84]	; 0x54
200019c2:	6539      	str	r1, [r7, #80]	; 0x50
200019c4:	6d39      	ldr	r1, [r7, #80]	; 0x50
200019c6:	fab1 f181 	clz	r1, r1
200019ca:	64f9      	str	r1, [r7, #76]	; 0x4c
200019cc:	6cf9      	ldr	r1, [r7, #76]	; 0x4c
200019ce:	b2c9      	uxtb	r1, r1
200019d0:	408b      	lsls	r3, r1
200019d2:	4313      	orrs	r3, r2
200019d4:	6003      	str	r3, [r0, #0]
200019d6:	e048      	b.n	20001a6a <HAL_RCC_OscConfig+0x1fa>
200019d8:	687b      	ldr	r3, [r7, #4]
200019da:	68db      	ldr	r3, [r3, #12]
200019dc:	2b00      	cmp	r3, #0
200019de:	d02e      	beq.n	20001a3e <HAL_RCC_OscConfig+0x1ce>
200019e0:	4b52      	ldr	r3, [pc, #328]	; (20001b2c <HAL_RCC_OscConfig+0x2bc>)
200019e2:	2201      	movs	r2, #1
200019e4:	601a      	str	r2, [r3, #0]
200019e6:	f001 fafd 	bl	20002fe4 <HAL_GetTick>
200019ea:	65f8      	str	r0, [r7, #92]	; 0x5c
200019ec:	e008      	b.n	20001a00 <HAL_RCC_OscConfig+0x190>
200019ee:	f001 faf9 	bl	20002fe4 <HAL_GetTick>
200019f2:	4602      	mov	r2, r0
200019f4:	6dfb      	ldr	r3, [r7, #92]	; 0x5c
200019f6:	1ad3      	subs	r3, r2, r3
200019f8:	2b64      	cmp	r3, #100	; 0x64
200019fa:	d901      	bls.n	20001a00 <HAL_RCC_OscConfig+0x190>
200019fc:	2303      	movs	r3, #3
200019fe:	e186      	b.n	20001d0e <HAL_RCC_OscConfig+0x49e>
20001a00:	4b48      	ldr	r3, [pc, #288]	; (20001b24 <HAL_RCC_OscConfig+0x2b4>)
20001a02:	681b      	ldr	r3, [r3, #0]
20001a04:	f003 0302 	and.w	r3, r3, #2
20001a08:	2b00      	cmp	r3, #0
20001a0a:	d0f0      	beq.n	200019ee <HAL_RCC_OscConfig+0x17e>
20001a0c:	4845      	ldr	r0, [pc, #276]	; (20001b24 <HAL_RCC_OscConfig+0x2b4>)
20001a0e:	4b45      	ldr	r3, [pc, #276]	; (20001b24 <HAL_RCC_OscConfig+0x2b4>)
20001a10:	681b      	ldr	r3, [r3, #0]
20001a12:	f023 02f8 	bic.w	r2, r3, #248	; 0xf8
20001a16:	687b      	ldr	r3, [r7, #4]
20001a18:	691b      	ldr	r3, [r3, #16]
20001a1a:	21f8      	movs	r1, #248	; 0xf8
20001a1c:	64b9      	str	r1, [r7, #72]	; 0x48
20001a1e:	6cb9      	ldr	r1, [r7, #72]	; 0x48
20001a20:	fa91 f1a1 	rbit	r1, r1
20001a24:	6479      	str	r1, [r7, #68]	; 0x44
20001a26:	6c79      	ldr	r1, [r7, #68]	; 0x44
20001a28:	6439      	str	r1, [r7, #64]	; 0x40
20001a2a:	6c39      	ldr	r1, [r7, #64]	; 0x40
20001a2c:	fab1 f181 	clz	r1, r1
20001a30:	63f9      	str	r1, [r7, #60]	; 0x3c
20001a32:	6bf9      	ldr	r1, [r7, #60]	; 0x3c
20001a34:	b2c9      	uxtb	r1, r1
20001a36:	408b      	lsls	r3, r1
20001a38:	4313      	orrs	r3, r2
20001a3a:	6003      	str	r3, [r0, #0]
20001a3c:	e015      	b.n	20001a6a <HAL_RCC_OscConfig+0x1fa>
20001a3e:	4b3b      	ldr	r3, [pc, #236]	; (20001b2c <HAL_RCC_OscConfig+0x2bc>)
20001a40:	2200      	movs	r2, #0
20001a42:	601a      	str	r2, [r3, #0]
20001a44:	f001 face 	bl	20002fe4 <HAL_GetTick>
20001a48:	65f8      	str	r0, [r7, #92]	; 0x5c
20001a4a:	e008      	b.n	20001a5e <HAL_RCC_OscConfig+0x1ee>
20001a4c:	f001 faca 	bl	20002fe4 <HAL_GetTick>
20001a50:	4602      	mov	r2, r0
20001a52:	6dfb      	ldr	r3, [r7, #92]	; 0x5c
20001a54:	1ad3      	subs	r3, r2, r3
20001a56:	2b64      	cmp	r3, #100	; 0x64
20001a58:	d901      	bls.n	20001a5e <HAL_RCC_OscConfig+0x1ee>
20001a5a:	2303      	movs	r3, #3
20001a5c:	e157      	b.n	20001d0e <HAL_RCC_OscConfig+0x49e>
20001a5e:	4b31      	ldr	r3, [pc, #196]	; (20001b24 <HAL_RCC_OscConfig+0x2b4>)
20001a60:	681b      	ldr	r3, [r3, #0]
20001a62:	f003 0302 	and.w	r3, r3, #2
20001a66:	2b00      	cmp	r3, #0
20001a68:	d1f0      	bne.n	20001a4c <HAL_RCC_OscConfig+0x1dc>
20001a6a:	687b      	ldr	r3, [r7, #4]
20001a6c:	681b      	ldr	r3, [r3, #0]
20001a6e:	f003 0308 	and.w	r3, r3, #8
20001a72:	2b00      	cmp	r3, #0
20001a74:	d030      	beq.n	20001ad8 <HAL_RCC_OscConfig+0x268>
20001a76:	687b      	ldr	r3, [r7, #4]
20001a78:	695b      	ldr	r3, [r3, #20]
20001a7a:	2b00      	cmp	r3, #0
20001a7c:	d016      	beq.n	20001aac <HAL_RCC_OscConfig+0x23c>
20001a7e:	4b2c      	ldr	r3, [pc, #176]	; (20001b30 <HAL_RCC_OscConfig+0x2c0>)
20001a80:	2201      	movs	r2, #1
20001a82:	601a      	str	r2, [r3, #0]
20001a84:	f001 faae 	bl	20002fe4 <HAL_GetTick>
20001a88:	65f8      	str	r0, [r7, #92]	; 0x5c
20001a8a:	e008      	b.n	20001a9e <HAL_RCC_OscConfig+0x22e>
20001a8c:	f001 faaa 	bl	20002fe4 <HAL_GetTick>
20001a90:	4602      	mov	r2, r0
20001a92:	6dfb      	ldr	r3, [r7, #92]	; 0x5c
20001a94:	1ad3      	subs	r3, r2, r3
20001a96:	2b64      	cmp	r3, #100	; 0x64
20001a98:	d901      	bls.n	20001a9e <HAL_RCC_OscConfig+0x22e>
20001a9a:	2303      	movs	r3, #3
20001a9c:	e137      	b.n	20001d0e <HAL_RCC_OscConfig+0x49e>
20001a9e:	4b21      	ldr	r3, [pc, #132]	; (20001b24 <HAL_RCC_OscConfig+0x2b4>)
20001aa0:	6f5b      	ldr	r3, [r3, #116]	; 0x74
20001aa2:	f003 0302 	and.w	r3, r3, #2
20001aa6:	2b00      	cmp	r3, #0
20001aa8:	d0f0      	beq.n	20001a8c <HAL_RCC_OscConfig+0x21c>
20001aaa:	e015      	b.n	20001ad8 <HAL_RCC_OscConfig+0x268>
20001aac:	4b20      	ldr	r3, [pc, #128]	; (20001b30 <HAL_RCC_OscConfig+0x2c0>)
20001aae:	2200      	movs	r2, #0
20001ab0:	601a      	str	r2, [r3, #0]
20001ab2:	f001 fa97 	bl	20002fe4 <HAL_GetTick>
20001ab6:	65f8      	str	r0, [r7, #92]	; 0x5c
20001ab8:	e008      	b.n	20001acc <HAL_RCC_OscConfig+0x25c>
20001aba:	f001 fa93 	bl	20002fe4 <HAL_GetTick>
20001abe:	4602      	mov	r2, r0
20001ac0:	6dfb      	ldr	r3, [r7, #92]	; 0x5c
20001ac2:	1ad3      	subs	r3, r2, r3
20001ac4:	2b64      	cmp	r3, #100	; 0x64
20001ac6:	d901      	bls.n	20001acc <HAL_RCC_OscConfig+0x25c>
20001ac8:	2303      	movs	r3, #3
20001aca:	e120      	b.n	20001d0e <HAL_RCC_OscConfig+0x49e>
20001acc:	4b15      	ldr	r3, [pc, #84]	; (20001b24 <HAL_RCC_OscConfig+0x2b4>)
20001ace:	6f5b      	ldr	r3, [r3, #116]	; 0x74
20001ad0:	f003 0302 	and.w	r3, r3, #2
20001ad4:	2b00      	cmp	r3, #0
20001ad6:	d1f0      	bne.n	20001aba <HAL_RCC_OscConfig+0x24a>
20001ad8:	687b      	ldr	r3, [r7, #4]
20001ada:	681b      	ldr	r3, [r3, #0]
20001adc:	f003 0304 	and.w	r3, r3, #4
20001ae0:	2b00      	cmp	r3, #0
20001ae2:	d07b      	beq.n	20001bdc <HAL_RCC_OscConfig+0x36c>
20001ae4:	4a0f      	ldr	r2, [pc, #60]	; (20001b24 <HAL_RCC_OscConfig+0x2b4>)
20001ae6:	4b0f      	ldr	r3, [pc, #60]	; (20001b24 <HAL_RCC_OscConfig+0x2b4>)
20001ae8:	6c1b      	ldr	r3, [r3, #64]	; 0x40
20001aea:	f043 5380 	orr.w	r3, r3, #268435456	; 0x10000000
20001aee:	6413      	str	r3, [r2, #64]	; 0x40
20001af0:	4b0c      	ldr	r3, [pc, #48]	; (20001b24 <HAL_RCC_OscConfig+0x2b4>)
20001af2:	6c1b      	ldr	r3, [r3, #64]	; 0x40
20001af4:	f003 5380 	and.w	r3, r3, #268435456	; 0x10000000
20001af8:	60bb      	str	r3, [r7, #8]
20001afa:	68bb      	ldr	r3, [r7, #8]
20001afc:	4a0d      	ldr	r2, [pc, #52]	; (20001b34 <HAL_RCC_OscConfig+0x2c4>)
20001afe:	4b0d      	ldr	r3, [pc, #52]	; (20001b34 <HAL_RCC_OscConfig+0x2c4>)
20001b00:	681b      	ldr	r3, [r3, #0]
20001b02:	f443 7380 	orr.w	r3, r3, #256	; 0x100
20001b06:	6013      	str	r3, [r2, #0]
20001b08:	f001 fa6c 	bl	20002fe4 <HAL_GetTick>
20001b0c:	65f8      	str	r0, [r7, #92]	; 0x5c
20001b0e:	e013      	b.n	20001b38 <HAL_RCC_OscConfig+0x2c8>
20001b10:	f001 fa68 	bl	20002fe4 <HAL_GetTick>
20001b14:	4602      	mov	r2, r0
20001b16:	6dfb      	ldr	r3, [r7, #92]	; 0x5c
20001b18:	1ad3      	subs	r3, r2, r3
20001b1a:	2b64      	cmp	r3, #100	; 0x64
20001b1c:	d90c      	bls.n	20001b38 <HAL_RCC_OscConfig+0x2c8>
20001b1e:	2303      	movs	r3, #3
20001b20:	e0f5      	b.n	20001d0e <HAL_RCC_OscConfig+0x49e>
20001b22:	bf00      	nop
20001b24:	40023800 	.word	0x40023800
20001b28:	40023802 	.word	0x40023802
20001b2c:	42470000 	.word	0x42470000
20001b30:	42470e80 	.word	0x42470e80
20001b34:	40007000 	.word	0x40007000
20001b38:	4b77      	ldr	r3, [pc, #476]	; (20001d18 <HAL_RCC_OscConfig+0x4a8>)
20001b3a:	681b      	ldr	r3, [r3, #0]
20001b3c:	f403 7380 	and.w	r3, r3, #256	; 0x100
20001b40:	2b00      	cmp	r3, #0
20001b42:	d0e5      	beq.n	20001b10 <HAL_RCC_OscConfig+0x2a0>
20001b44:	4b75      	ldr	r3, [pc, #468]	; (20001d1c <HAL_RCC_OscConfig+0x4ac>)
20001b46:	2200      	movs	r2, #0
20001b48:	701a      	strb	r2, [r3, #0]
20001b4a:	f001 fa4b 	bl	20002fe4 <HAL_GetTick>
20001b4e:	65f8      	str	r0, [r7, #92]	; 0x5c
20001b50:	e00a      	b.n	20001b68 <HAL_RCC_OscConfig+0x2f8>
20001b52:	f001 fa47 	bl	20002fe4 <HAL_GetTick>
20001b56:	4602      	mov	r2, r0
20001b58:	6dfb      	ldr	r3, [r7, #92]	; 0x5c
20001b5a:	1ad3      	subs	r3, r2, r3
20001b5c:	f241 3288 	movw	r2, #5000	; 0x1388
20001b60:	4293      	cmp	r3, r2
20001b62:	d901      	bls.n	20001b68 <HAL_RCC_OscConfig+0x2f8>
20001b64:	2303      	movs	r3, #3
20001b66:	e0d2      	b.n	20001d0e <HAL_RCC_OscConfig+0x49e>
20001b68:	4b6d      	ldr	r3, [pc, #436]	; (20001d20 <HAL_RCC_OscConfig+0x4b0>)
20001b6a:	6f1b      	ldr	r3, [r3, #112]	; 0x70
20001b6c:	f003 0302 	and.w	r3, r3, #2
20001b70:	2b00      	cmp	r3, #0
20001b72:	d1ee      	bne.n	20001b52 <HAL_RCC_OscConfig+0x2e2>
20001b74:	4a69      	ldr	r2, [pc, #420]	; (20001d1c <HAL_RCC_OscConfig+0x4ac>)
20001b76:	687b      	ldr	r3, [r7, #4]
20001b78:	689b      	ldr	r3, [r3, #8]
20001b7a:	b2db      	uxtb	r3, r3
20001b7c:	7013      	strb	r3, [r2, #0]
20001b7e:	687b      	ldr	r3, [r7, #4]
20001b80:	689b      	ldr	r3, [r3, #8]
20001b82:	2b00      	cmp	r3, #0
20001b84:	d015      	beq.n	20001bb2 <HAL_RCC_OscConfig+0x342>
20001b86:	f001 fa2d 	bl	20002fe4 <HAL_GetTick>
20001b8a:	65f8      	str	r0, [r7, #92]	; 0x5c
20001b8c:	e00a      	b.n	20001ba4 <HAL_RCC_OscConfig+0x334>
20001b8e:	f001 fa29 	bl	20002fe4 <HAL_GetTick>
20001b92:	4602      	mov	r2, r0
20001b94:	6dfb      	ldr	r3, [r7, #92]	; 0x5c
20001b96:	1ad3      	subs	r3, r2, r3
20001b98:	f241 3288 	movw	r2, #5000	; 0x1388
20001b9c:	4293      	cmp	r3, r2
20001b9e:	d901      	bls.n	20001ba4 <HAL_RCC_OscConfig+0x334>
20001ba0:	2303      	movs	r3, #3
20001ba2:	e0b4      	b.n	20001d0e <HAL_RCC_OscConfig+0x49e>
20001ba4:	4b5e      	ldr	r3, [pc, #376]	; (20001d20 <HAL_RCC_OscConfig+0x4b0>)
20001ba6:	6f1b      	ldr	r3, [r3, #112]	; 0x70
20001ba8:	f003 0302 	and.w	r3, r3, #2
20001bac:	2b00      	cmp	r3, #0
20001bae:	d0ee      	beq.n	20001b8e <HAL_RCC_OscConfig+0x31e>
20001bb0:	e014      	b.n	20001bdc <HAL_RCC_OscConfig+0x36c>
20001bb2:	f001 fa17 	bl	20002fe4 <HAL_GetTick>
20001bb6:	65f8      	str	r0, [r7, #92]	; 0x5c
20001bb8:	e00a      	b.n	20001bd0 <HAL_RCC_OscConfig+0x360>
20001bba:	f001 fa13 	bl	20002fe4 <HAL_GetTick>
20001bbe:	4602      	mov	r2, r0
20001bc0:	6dfb      	ldr	r3, [r7, #92]	; 0x5c
20001bc2:	1ad3      	subs	r3, r2, r3
20001bc4:	f241 3288 	movw	r2, #5000	; 0x1388
20001bc8:	4293      	cmp	r3, r2
20001bca:	d901      	bls.n	20001bd0 <HAL_RCC_OscConfig+0x360>
20001bcc:	2303      	movs	r3, #3
20001bce:	e09e      	b.n	20001d0e <HAL_RCC_OscConfig+0x49e>
20001bd0:	4b53      	ldr	r3, [pc, #332]	; (20001d20 <HAL_RCC_OscConfig+0x4b0>)
20001bd2:	6f1b      	ldr	r3, [r3, #112]	; 0x70
20001bd4:	f003 0302 	and.w	r3, r3, #2
20001bd8:	2b00      	cmp	r3, #0
20001bda:	d1ee      	bne.n	20001bba <HAL_RCC_OscConfig+0x34a>
20001bdc:	687b      	ldr	r3, [r7, #4]
20001bde:	699b      	ldr	r3, [r3, #24]
20001be0:	2b00      	cmp	r3, #0
20001be2:	f000 8093 	beq.w	20001d0c <HAL_RCC_OscConfig+0x49c>
20001be6:	4b4e      	ldr	r3, [pc, #312]	; (20001d20 <HAL_RCC_OscConfig+0x4b0>)
20001be8:	689b      	ldr	r3, [r3, #8]
20001bea:	f003 030c 	and.w	r3, r3, #12
20001bee:	2b08      	cmp	r3, #8
20001bf0:	f000 808a 	beq.w	20001d08 <HAL_RCC_OscConfig+0x498>
20001bf4:	687b      	ldr	r3, [r7, #4]
20001bf6:	699b      	ldr	r3, [r3, #24]
20001bf8:	2b02      	cmp	r3, #2
20001bfa:	d16e      	bne.n	20001cda <HAL_RCC_OscConfig+0x46a>
20001bfc:	4b49      	ldr	r3, [pc, #292]	; (20001d24 <HAL_RCC_OscConfig+0x4b4>)
20001bfe:	2200      	movs	r2, #0
20001c00:	601a      	str	r2, [r3, #0]
20001c02:	f001 f9ef 	bl	20002fe4 <HAL_GetTick>
20001c06:	65f8      	str	r0, [r7, #92]	; 0x5c
20001c08:	e008      	b.n	20001c1c <HAL_RCC_OscConfig+0x3ac>
20001c0a:	f001 f9eb 	bl	20002fe4 <HAL_GetTick>
20001c0e:	4602      	mov	r2, r0
20001c10:	6dfb      	ldr	r3, [r7, #92]	; 0x5c
20001c12:	1ad3      	subs	r3, r2, r3
20001c14:	2b64      	cmp	r3, #100	; 0x64
20001c16:	d901      	bls.n	20001c1c <HAL_RCC_OscConfig+0x3ac>
20001c18:	2303      	movs	r3, #3
20001c1a:	e078      	b.n	20001d0e <HAL_RCC_OscConfig+0x49e>
20001c1c:	4b40      	ldr	r3, [pc, #256]	; (20001d20 <HAL_RCC_OscConfig+0x4b0>)
20001c1e:	681b      	ldr	r3, [r3, #0]
20001c20:	f003 7300 	and.w	r3, r3, #33554432	; 0x2000000
20001c24:	2b00      	cmp	r3, #0
20001c26:	d1f0      	bne.n	20001c0a <HAL_RCC_OscConfig+0x39a>
20001c28:	483d      	ldr	r0, [pc, #244]	; (20001d20 <HAL_RCC_OscConfig+0x4b0>)
20001c2a:	687b      	ldr	r3, [r7, #4]
20001c2c:	69da      	ldr	r2, [r3, #28]
20001c2e:	687b      	ldr	r3, [r7, #4]
20001c30:	6a1b      	ldr	r3, [r3, #32]
20001c32:	431a      	orrs	r2, r3
20001c34:	687b      	ldr	r3, [r7, #4]
20001c36:	6a5b      	ldr	r3, [r3, #36]	; 0x24
20001c38:	f647 71c0 	movw	r1, #32704	; 0x7fc0
20001c3c:	63b9      	str	r1, [r7, #56]	; 0x38
20001c3e:	6bb9      	ldr	r1, [r7, #56]	; 0x38
20001c40:	fa91 f1a1 	rbit	r1, r1
20001c44:	6379      	str	r1, [r7, #52]	; 0x34
20001c46:	6b79      	ldr	r1, [r7, #52]	; 0x34
20001c48:	6339      	str	r1, [r7, #48]	; 0x30
20001c4a:	6b39      	ldr	r1, [r7, #48]	; 0x30
20001c4c:	fab1 f181 	clz	r1, r1
20001c50:	62f9      	str	r1, [r7, #44]	; 0x2c
20001c52:	6af9      	ldr	r1, [r7, #44]	; 0x2c
20001c54:	b2c9      	uxtb	r1, r1
20001c56:	408b      	lsls	r3, r1
20001c58:	431a      	orrs	r2, r3
20001c5a:	687b      	ldr	r3, [r7, #4]
20001c5c:	6a9b      	ldr	r3, [r3, #40]	; 0x28
20001c5e:	085b      	lsrs	r3, r3, #1
20001c60:	3b01      	subs	r3, #1
20001c62:	f44f 3140 	mov.w	r1, #196608	; 0x30000
20001c66:	62b9      	str	r1, [r7, #40]	; 0x28
20001c68:	6ab9      	ldr	r1, [r7, #40]	; 0x28
20001c6a:	fa91 f1a1 	rbit	r1, r1
20001c6e:	6279      	str	r1, [r7, #36]	; 0x24
20001c70:	6a79      	ldr	r1, [r7, #36]	; 0x24
20001c72:	6239      	str	r1, [r7, #32]
20001c74:	6a39      	ldr	r1, [r7, #32]
20001c76:	fab1 f181 	clz	r1, r1
20001c7a:	61f9      	str	r1, [r7, #28]
20001c7c:	69f9      	ldr	r1, [r7, #28]
20001c7e:	b2c9      	uxtb	r1, r1
20001c80:	408b      	lsls	r3, r1
20001c82:	431a      	orrs	r2, r3
20001c84:	687b      	ldr	r3, [r7, #4]
20001c86:	6adb      	ldr	r3, [r3, #44]	; 0x2c
20001c88:	f04f 6170 	mov.w	r1, #251658240	; 0xf000000
20001c8c:	61b9      	str	r1, [r7, #24]
20001c8e:	69b9      	ldr	r1, [r7, #24]
20001c90:	fa91 f1a1 	rbit	r1, r1
20001c94:	6179      	str	r1, [r7, #20]
20001c96:	6979      	ldr	r1, [r7, #20]
20001c98:	6139      	str	r1, [r7, #16]
20001c9a:	6939      	ldr	r1, [r7, #16]
20001c9c:	fab1 f181 	clz	r1, r1
20001ca0:	60f9      	str	r1, [r7, #12]
20001ca2:	68f9      	ldr	r1, [r7, #12]
20001ca4:	b2c9      	uxtb	r1, r1
20001ca6:	408b      	lsls	r3, r1
20001ca8:	4313      	orrs	r3, r2
20001caa:	6043      	str	r3, [r0, #4]
20001cac:	4b1d      	ldr	r3, [pc, #116]	; (20001d24 <HAL_RCC_OscConfig+0x4b4>)
20001cae:	2201      	movs	r2, #1
20001cb0:	601a      	str	r2, [r3, #0]
20001cb2:	f001 f997 	bl	20002fe4 <HAL_GetTick>
20001cb6:	65f8      	str	r0, [r7, #92]	; 0x5c
20001cb8:	e008      	b.n	20001ccc <HAL_RCC_OscConfig+0x45c>
20001cba:	f001 f993 	bl	20002fe4 <HAL_GetTick>
20001cbe:	4602      	mov	r2, r0
20001cc0:	6dfb      	ldr	r3, [r7, #92]	; 0x5c
20001cc2:	1ad3      	subs	r3, r2, r3
20001cc4:	2b64      	cmp	r3, #100	; 0x64
20001cc6:	d901      	bls.n	20001ccc <HAL_RCC_OscConfig+0x45c>
20001cc8:	2303      	movs	r3, #3
20001cca:	e020      	b.n	20001d0e <HAL_RCC_OscConfig+0x49e>
20001ccc:	4b14      	ldr	r3, [pc, #80]	; (20001d20 <HAL_RCC_OscConfig+0x4b0>)
20001cce:	681b      	ldr	r3, [r3, #0]
20001cd0:	f003 7300 	and.w	r3, r3, #33554432	; 0x2000000
20001cd4:	2b00      	cmp	r3, #0
20001cd6:	d0f0      	beq.n	20001cba <HAL_RCC_OscConfig+0x44a>
20001cd8:	e018      	b.n	20001d0c <HAL_RCC_OscConfig+0x49c>
20001cda:	4b12      	ldr	r3, [pc, #72]	; (20001d24 <HAL_RCC_OscConfig+0x4b4>)
20001cdc:	2200      	movs	r2, #0
20001cde:	601a      	str	r2, [r3, #0]
20001ce0:	f001 f980 	bl	20002fe4 <HAL_GetTick>
20001ce4:	65f8      	str	r0, [r7, #92]	; 0x5c
20001ce6:	e008      	b.n	20001cfa <HAL_RCC_OscConfig+0x48a>
20001ce8:	f001 f97c 	bl	20002fe4 <HAL_GetTick>
20001cec:	4602      	mov	r2, r0
20001cee:	6dfb      	ldr	r3, [r7, #92]	; 0x5c
20001cf0:	1ad3      	subs	r3, r2, r3
20001cf2:	2b64      	cmp	r3, #100	; 0x64
20001cf4:	d901      	bls.n	20001cfa <HAL_RCC_OscConfig+0x48a>
20001cf6:	2303      	movs	r3, #3
20001cf8:	e009      	b.n	20001d0e <HAL_RCC_OscConfig+0x49e>
20001cfa:	4b09      	ldr	r3, [pc, #36]	; (20001d20 <HAL_RCC_OscConfig+0x4b0>)
20001cfc:	681b      	ldr	r3, [r3, #0]
20001cfe:	f003 7300 	and.w	r3, r3, #33554432	; 0x2000000
20001d02:	2b00      	cmp	r3, #0
20001d04:	d1f0      	bne.n	20001ce8 <HAL_RCC_OscConfig+0x478>
20001d06:	e001      	b.n	20001d0c <HAL_RCC_OscConfig+0x49c>
20001d08:	2301      	movs	r3, #1
20001d0a:	e000      	b.n	20001d0e <HAL_RCC_OscConfig+0x49e>
20001d0c:	2300      	movs	r3, #0
20001d0e:	4618      	mov	r0, r3
20001d10:	3760      	adds	r7, #96	; 0x60
20001d12:	46bd      	mov	sp, r7
20001d14:	bd80      	pop	{r7, pc}
20001d16:	bf00      	nop
20001d18:	40007000 	.word	0x40007000
20001d1c:	40023870 	.word	0x40023870
20001d20:	40023800 	.word	0x40023800
20001d24:	42470060 	.word	0x42470060

20001d28 <HAL_RCC_ClockConfig>:
20001d28:	b580      	push	{r7, lr}
20001d2a:	b084      	sub	sp, #16
20001d2c:	af00      	add	r7, sp, #0
20001d2e:	6078      	str	r0, [r7, #4]
20001d30:	6039      	str	r1, [r7, #0]
20001d32:	2300      	movs	r3, #0
20001d34:	60fb      	str	r3, [r7, #12]
20001d36:	4ba2      	ldr	r3, [pc, #648]	; (20001fc0 <HAL_RCC_ClockConfig+0x298>)
20001d38:	681b      	ldr	r3, [r3, #0]
20001d3a:	f003 020f 	and.w	r2, r3, #15
20001d3e:	683b      	ldr	r3, [r7, #0]
20001d40:	429a      	cmp	r2, r3
20001d42:	f080 80a8 	bcs.w	20001e96 <HAL_RCC_ClockConfig+0x16e>
20001d46:	4b9e      	ldr	r3, [pc, #632]	; (20001fc0 <HAL_RCC_ClockConfig+0x298>)
20001d48:	683a      	ldr	r2, [r7, #0]
20001d4a:	b2d2      	uxtb	r2, r2
20001d4c:	701a      	strb	r2, [r3, #0]
20001d4e:	4b9c      	ldr	r3, [pc, #624]	; (20001fc0 <HAL_RCC_ClockConfig+0x298>)
20001d50:	681b      	ldr	r3, [r3, #0]
20001d52:	f003 020f 	and.w	r2, r3, #15
20001d56:	683b      	ldr	r3, [r7, #0]
20001d58:	429a      	cmp	r2, r3
20001d5a:	d001      	beq.n	20001d60 <HAL_RCC_ClockConfig+0x38>
20001d5c:	2301      	movs	r3, #1
20001d5e:	e169      	b.n	20002034 <HAL_RCC_ClockConfig+0x30c>
20001d60:	687b      	ldr	r3, [r7, #4]
20001d62:	681b      	ldr	r3, [r3, #0]
20001d64:	f003 0302 	and.w	r3, r3, #2
20001d68:	2b00      	cmp	r3, #0
20001d6a:	d008      	beq.n	20001d7e <HAL_RCC_ClockConfig+0x56>
20001d6c:	4995      	ldr	r1, [pc, #596]	; (20001fc4 <HAL_RCC_ClockConfig+0x29c>)
20001d6e:	4b95      	ldr	r3, [pc, #596]	; (20001fc4 <HAL_RCC_ClockConfig+0x29c>)
20001d70:	689b      	ldr	r3, [r3, #8]
20001d72:	f023 02f0 	bic.w	r2, r3, #240	; 0xf0
20001d76:	687b      	ldr	r3, [r7, #4]
20001d78:	689b      	ldr	r3, [r3, #8]
20001d7a:	4313      	orrs	r3, r2
20001d7c:	608b      	str	r3, [r1, #8]
20001d7e:	687b      	ldr	r3, [r7, #4]
20001d80:	681b      	ldr	r3, [r3, #0]
20001d82:	f003 0301 	and.w	r3, r3, #1
20001d86:	2b00      	cmp	r3, #0
20001d88:	f000 8131 	beq.w	20001fee <HAL_RCC_ClockConfig+0x2c6>
20001d8c:	687b      	ldr	r3, [r7, #4]
20001d8e:	685b      	ldr	r3, [r3, #4]
20001d90:	2b01      	cmp	r3, #1
20001d92:	d107      	bne.n	20001da4 <HAL_RCC_ClockConfig+0x7c>
20001d94:	4b8b      	ldr	r3, [pc, #556]	; (20001fc4 <HAL_RCC_ClockConfig+0x29c>)
20001d96:	681b      	ldr	r3, [r3, #0]
20001d98:	f403 3300 	and.w	r3, r3, #131072	; 0x20000
20001d9c:	2b00      	cmp	r3, #0
20001d9e:	d11a      	bne.n	20001dd6 <HAL_RCC_ClockConfig+0xae>
20001da0:	2301      	movs	r3, #1
20001da2:	e147      	b.n	20002034 <HAL_RCC_ClockConfig+0x30c>
20001da4:	687b      	ldr	r3, [r7, #4]
20001da6:	685b      	ldr	r3, [r3, #4]
20001da8:	2b02      	cmp	r3, #2
20001daa:	d003      	beq.n	20001db4 <HAL_RCC_ClockConfig+0x8c>
20001dac:	687b      	ldr	r3, [r7, #4]
20001dae:	685b      	ldr	r3, [r3, #4]
20001db0:	2b03      	cmp	r3, #3
20001db2:	d108      	bne.n	20001dc6 <HAL_RCC_ClockConfig+0x9e>
20001db4:	4b83      	ldr	r3, [pc, #524]	; (20001fc4 <HAL_RCC_ClockConfig+0x29c>)
20001db6:	681b      	ldr	r3, [r3, #0]
20001db8:	f003 7300 	and.w	r3, r3, #33554432	; 0x2000000
20001dbc:	2b00      	cmp	r3, #0
20001dbe:	d101      	bne.n	20001dc4 <HAL_RCC_ClockConfig+0x9c>
20001dc0:	2301      	movs	r3, #1
20001dc2:	e137      	b.n	20002034 <HAL_RCC_ClockConfig+0x30c>
20001dc4:	e007      	b.n	20001dd6 <HAL_RCC_ClockConfig+0xae>
20001dc6:	4b7f      	ldr	r3, [pc, #508]	; (20001fc4 <HAL_RCC_ClockConfig+0x29c>)
20001dc8:	681b      	ldr	r3, [r3, #0]
20001dca:	f003 0302 	and.w	r3, r3, #2
20001dce:	2b00      	cmp	r3, #0
20001dd0:	d101      	bne.n	20001dd6 <HAL_RCC_ClockConfig+0xae>
20001dd2:	2301      	movs	r3, #1
20001dd4:	e12e      	b.n	20002034 <HAL_RCC_ClockConfig+0x30c>
20001dd6:	497b      	ldr	r1, [pc, #492]	; (20001fc4 <HAL_RCC_ClockConfig+0x29c>)
20001dd8:	4b7a      	ldr	r3, [pc, #488]	; (20001fc4 <HAL_RCC_ClockConfig+0x29c>)
20001dda:	689b      	ldr	r3, [r3, #8]
20001ddc:	f023 0203 	bic.w	r2, r3, #3
20001de0:	687b      	ldr	r3, [r7, #4]
20001de2:	685b      	ldr	r3, [r3, #4]
20001de4:	4313      	orrs	r3, r2
20001de6:	608b      	str	r3, [r1, #8]
20001de8:	f001 f8fc 	bl	20002fe4 <HAL_GetTick>
20001dec:	60f8      	str	r0, [r7, #12]
20001dee:	687b      	ldr	r3, [r7, #4]
20001df0:	685b      	ldr	r3, [r3, #4]
20001df2:	2b01      	cmp	r3, #1
20001df4:	d112      	bne.n	20001e1c <HAL_RCC_ClockConfig+0xf4>
20001df6:	e00a      	b.n	20001e0e <HAL_RCC_ClockConfig+0xe6>
20001df8:	f001 f8f4 	bl	20002fe4 <HAL_GetTick>
20001dfc:	4602      	mov	r2, r0
20001dfe:	68fb      	ldr	r3, [r7, #12]
20001e00:	1ad3      	subs	r3, r2, r3
20001e02:	f241 3288 	movw	r2, #5000	; 0x1388
20001e06:	4293      	cmp	r3, r2
20001e08:	d901      	bls.n	20001e0e <HAL_RCC_ClockConfig+0xe6>
20001e0a:	2303      	movs	r3, #3
20001e0c:	e112      	b.n	20002034 <HAL_RCC_ClockConfig+0x30c>
20001e0e:	4b6d      	ldr	r3, [pc, #436]	; (20001fc4 <HAL_RCC_ClockConfig+0x29c>)
20001e10:	689b      	ldr	r3, [r3, #8]
20001e12:	f003 030c 	and.w	r3, r3, #12
20001e16:	2b04      	cmp	r3, #4
20001e18:	d1ee      	bne.n	20001df8 <HAL_RCC_ClockConfig+0xd0>
20001e1a:	e0e8      	b.n	20001fee <HAL_RCC_ClockConfig+0x2c6>
20001e1c:	687b      	ldr	r3, [r7, #4]
20001e1e:	685b      	ldr	r3, [r3, #4]
20001e20:	2b02      	cmp	r3, #2
20001e22:	d112      	bne.n	20001e4a <HAL_RCC_ClockConfig+0x122>
20001e24:	e00a      	b.n	20001e3c <HAL_RCC_ClockConfig+0x114>
20001e26:	f001 f8dd 	bl	20002fe4 <HAL_GetTick>
20001e2a:	4602      	mov	r2, r0
20001e2c:	68fb      	ldr	r3, [r7, #12]
20001e2e:	1ad3      	subs	r3, r2, r3
20001e30:	f241 3288 	movw	r2, #5000	; 0x1388
20001e34:	4293      	cmp	r3, r2
20001e36:	d901      	bls.n	20001e3c <HAL_RCC_ClockConfig+0x114>
20001e38:	2303      	movs	r3, #3
20001e3a:	e0fb      	b.n	20002034 <HAL_RCC_ClockConfig+0x30c>
20001e3c:	4b61      	ldr	r3, [pc, #388]	; (20001fc4 <HAL_RCC_ClockConfig+0x29c>)
20001e3e:	689b      	ldr	r3, [r3, #8]
20001e40:	f003 030c 	and.w	r3, r3, #12
20001e44:	2b08      	cmp	r3, #8
20001e46:	d1ee      	bne.n	20001e26 <HAL_RCC_ClockConfig+0xfe>
20001e48:	e0d1      	b.n	20001fee <HAL_RCC_ClockConfig+0x2c6>
20001e4a:	687b      	ldr	r3, [r7, #4]
20001e4c:	685b      	ldr	r3, [r3, #4]
20001e4e:	2b03      	cmp	r3, #3
20001e50:	d10e      	bne.n	20001e70 <HAL_RCC_ClockConfig+0x148>
20001e52:	e00a      	b.n	20001e6a <HAL_RCC_ClockConfig+0x142>
20001e54:	f001 f8c6 	bl	20002fe4 <HAL_GetTick>
20001e58:	4602      	mov	r2, r0
20001e5a:	68fb      	ldr	r3, [r7, #12]
20001e5c:	1ad3      	subs	r3, r2, r3
20001e5e:	f241 3288 	movw	r2, #5000	; 0x1388
20001e62:	4293      	cmp	r3, r2
20001e64:	d901      	bls.n	20001e6a <HAL_RCC_ClockConfig+0x142>
20001e66:	2303      	movs	r3, #3
20001e68:	e0e4      	b.n	20002034 <HAL_RCC_ClockConfig+0x30c>
20001e6a:	4b56      	ldr	r3, [pc, #344]	; (20001fc4 <HAL_RCC_ClockConfig+0x29c>)
20001e6c:	689b      	ldr	r3, [r3, #8]
20001e6e:	e7f1      	b.n	20001e54 <HAL_RCC_ClockConfig+0x12c>
20001e70:	e00a      	b.n	20001e88 <HAL_RCC_ClockConfig+0x160>
20001e72:	f001 f8b7 	bl	20002fe4 <HAL_GetTick>
20001e76:	4602      	mov	r2, r0
20001e78:	68fb      	ldr	r3, [r7, #12]
20001e7a:	1ad3      	subs	r3, r2, r3
20001e7c:	f241 3288 	movw	r2, #5000	; 0x1388
20001e80:	4293      	cmp	r3, r2
20001e82:	d901      	bls.n	20001e88 <HAL_RCC_ClockConfig+0x160>
20001e84:	2303      	movs	r3, #3
20001e86:	e0d5      	b.n	20002034 <HAL_RCC_ClockConfig+0x30c>
20001e88:	4b4e      	ldr	r3, [pc, #312]	; (20001fc4 <HAL_RCC_ClockConfig+0x29c>)
20001e8a:	689b      	ldr	r3, [r3, #8]
20001e8c:	f003 030c 	and.w	r3, r3, #12
20001e90:	2b00      	cmp	r3, #0
20001e92:	d1ee      	bne.n	20001e72 <HAL_RCC_ClockConfig+0x14a>
20001e94:	e0ab      	b.n	20001fee <HAL_RCC_ClockConfig+0x2c6>
20001e96:	687b      	ldr	r3, [r7, #4]
20001e98:	681b      	ldr	r3, [r3, #0]
20001e9a:	f003 0302 	and.w	r3, r3, #2
20001e9e:	2b00      	cmp	r3, #0
20001ea0:	d008      	beq.n	20001eb4 <HAL_RCC_ClockConfig+0x18c>
20001ea2:	4948      	ldr	r1, [pc, #288]	; (20001fc4 <HAL_RCC_ClockConfig+0x29c>)
20001ea4:	4b47      	ldr	r3, [pc, #284]	; (20001fc4 <HAL_RCC_ClockConfig+0x29c>)
20001ea6:	689b      	ldr	r3, [r3, #8]
20001ea8:	f023 02f0 	bic.w	r2, r3, #240	; 0xf0
20001eac:	687b      	ldr	r3, [r7, #4]
20001eae:	689b      	ldr	r3, [r3, #8]
20001eb0:	4313      	orrs	r3, r2
20001eb2:	608b      	str	r3, [r1, #8]
20001eb4:	687b      	ldr	r3, [r7, #4]
20001eb6:	681b      	ldr	r3, [r3, #0]
20001eb8:	f003 0301 	and.w	r3, r3, #1
20001ebc:	2b00      	cmp	r3, #0
20001ebe:	f000 8089 	beq.w	20001fd4 <HAL_RCC_ClockConfig+0x2ac>
20001ec2:	687b      	ldr	r3, [r7, #4]
20001ec4:	685b      	ldr	r3, [r3, #4]
20001ec6:	2b01      	cmp	r3, #1
20001ec8:	d107      	bne.n	20001eda <HAL_RCC_ClockConfig+0x1b2>
20001eca:	4b3e      	ldr	r3, [pc, #248]	; (20001fc4 <HAL_RCC_ClockConfig+0x29c>)
20001ecc:	681b      	ldr	r3, [r3, #0]
20001ece:	f403 3300 	and.w	r3, r3, #131072	; 0x20000
20001ed2:	2b00      	cmp	r3, #0
20001ed4:	d11a      	bne.n	20001f0c <HAL_RCC_ClockConfig+0x1e4>
20001ed6:	2301      	movs	r3, #1
20001ed8:	e0ac      	b.n	20002034 <HAL_RCC_ClockConfig+0x30c>
20001eda:	687b      	ldr	r3, [r7, #4]
20001edc:	685b      	ldr	r3, [r3, #4]
20001ede:	2b02      	cmp	r3, #2
20001ee0:	d003      	beq.n	20001eea <HAL_RCC_ClockConfig+0x1c2>
20001ee2:	687b      	ldr	r3, [r7, #4]
20001ee4:	685b      	ldr	r3, [r3, #4]
20001ee6:	2b03      	cmp	r3, #3
20001ee8:	d108      	bne.n	20001efc <HAL_RCC_ClockConfig+0x1d4>
20001eea:	4b36      	ldr	r3, [pc, #216]	; (20001fc4 <HAL_RCC_ClockConfig+0x29c>)
20001eec:	681b      	ldr	r3, [r3, #0]
20001eee:	f003 7300 	and.w	r3, r3, #33554432	; 0x2000000
20001ef2:	2b00      	cmp	r3, #0
20001ef4:	d101      	bne.n	20001efa <HAL_RCC_ClockConfig+0x1d2>
20001ef6:	2301      	movs	r3, #1
20001ef8:	e09c      	b.n	20002034 <HAL_RCC_ClockConfig+0x30c>
20001efa:	e007      	b.n	20001f0c <HAL_RCC_ClockConfig+0x1e4>
20001efc:	4b31      	ldr	r3, [pc, #196]	; (20001fc4 <HAL_RCC_ClockConfig+0x29c>)
20001efe:	681b      	ldr	r3, [r3, #0]
20001f00:	f003 0302 	and.w	r3, r3, #2
20001f04:	2b00      	cmp	r3, #0
20001f06:	d101      	bne.n	20001f0c <HAL_RCC_ClockConfig+0x1e4>
20001f08:	2301      	movs	r3, #1
20001f0a:	e093      	b.n	20002034 <HAL_RCC_ClockConfig+0x30c>
20001f0c:	492d      	ldr	r1, [pc, #180]	; (20001fc4 <HAL_RCC_ClockConfig+0x29c>)
20001f0e:	4b2d      	ldr	r3, [pc, #180]	; (20001fc4 <HAL_RCC_ClockConfig+0x29c>)
20001f10:	689b      	ldr	r3, [r3, #8]
20001f12:	f023 0203 	bic.w	r2, r3, #3
20001f16:	687b      	ldr	r3, [r7, #4]
20001f18:	685b      	ldr	r3, [r3, #4]
20001f1a:	4313      	orrs	r3, r2
20001f1c:	608b      	str	r3, [r1, #8]
20001f1e:	f001 f861 	bl	20002fe4 <HAL_GetTick>
20001f22:	60f8      	str	r0, [r7, #12]
20001f24:	687b      	ldr	r3, [r7, #4]
20001f26:	685b      	ldr	r3, [r3, #4]
20001f28:	2b01      	cmp	r3, #1
20001f2a:	d112      	bne.n	20001f52 <HAL_RCC_ClockConfig+0x22a>
20001f2c:	e00a      	b.n	20001f44 <HAL_RCC_ClockConfig+0x21c>
20001f2e:	f001 f859 	bl	20002fe4 <HAL_GetTick>
20001f32:	4602      	mov	r2, r0
20001f34:	68fb      	ldr	r3, [r7, #12]
20001f36:	1ad3      	subs	r3, r2, r3
20001f38:	f241 3288 	movw	r2, #5000	; 0x1388
20001f3c:	4293      	cmp	r3, r2
20001f3e:	d901      	bls.n	20001f44 <HAL_RCC_ClockConfig+0x21c>
20001f40:	2303      	movs	r3, #3
20001f42:	e077      	b.n	20002034 <HAL_RCC_ClockConfig+0x30c>
20001f44:	4b1f      	ldr	r3, [pc, #124]	; (20001fc4 <HAL_RCC_ClockConfig+0x29c>)
20001f46:	689b      	ldr	r3, [r3, #8]
20001f48:	f003 030c 	and.w	r3, r3, #12
20001f4c:	2b04      	cmp	r3, #4
20001f4e:	d1ee      	bne.n	20001f2e <HAL_RCC_ClockConfig+0x206>
20001f50:	e040      	b.n	20001fd4 <HAL_RCC_ClockConfig+0x2ac>
20001f52:	687b      	ldr	r3, [r7, #4]
20001f54:	685b      	ldr	r3, [r3, #4]
20001f56:	2b02      	cmp	r3, #2
20001f58:	d112      	bne.n	20001f80 <HAL_RCC_ClockConfig+0x258>
20001f5a:	e00a      	b.n	20001f72 <HAL_RCC_ClockConfig+0x24a>
20001f5c:	f001 f842 	bl	20002fe4 <HAL_GetTick>
20001f60:	4602      	mov	r2, r0
20001f62:	68fb      	ldr	r3, [r7, #12]
20001f64:	1ad3      	subs	r3, r2, r3
20001f66:	f241 3288 	movw	r2, #5000	; 0x1388
20001f6a:	4293      	cmp	r3, r2
20001f6c:	d901      	bls.n	20001f72 <HAL_RCC_ClockConfig+0x24a>
20001f6e:	2303      	movs	r3, #3
20001f70:	e060      	b.n	20002034 <HAL_RCC_ClockConfig+0x30c>
20001f72:	4b14      	ldr	r3, [pc, #80]	; (20001fc4 <HAL_RCC_ClockConfig+0x29c>)
20001f74:	689b      	ldr	r3, [r3, #8]
20001f76:	f003 030c 	and.w	r3, r3, #12
20001f7a:	2b08      	cmp	r3, #8
20001f7c:	d1ee      	bne.n	20001f5c <HAL_RCC_ClockConfig+0x234>
20001f7e:	e029      	b.n	20001fd4 <HAL_RCC_ClockConfig+0x2ac>
20001f80:	687b      	ldr	r3, [r7, #4]
20001f82:	685b      	ldr	r3, [r3, #4]
20001f84:	2b03      	cmp	r3, #3
20001f86:	d10e      	bne.n	20001fa6 <HAL_RCC_ClockConfig+0x27e>
20001f88:	e00a      	b.n	20001fa0 <HAL_RCC_ClockConfig+0x278>
20001f8a:	f001 f82b 	bl	20002fe4 <HAL_GetTick>
20001f8e:	4602      	mov	r2, r0
20001f90:	68fb      	ldr	r3, [r7, #12]
20001f92:	1ad3      	subs	r3, r2, r3
20001f94:	f241 3288 	movw	r2, #5000	; 0x1388
20001f98:	4293      	cmp	r3, r2
20001f9a:	d901      	bls.n	20001fa0 <HAL_RCC_ClockConfig+0x278>
20001f9c:	2303      	movs	r3, #3
20001f9e:	e049      	b.n	20002034 <HAL_RCC_ClockConfig+0x30c>
20001fa0:	4b08      	ldr	r3, [pc, #32]	; (20001fc4 <HAL_RCC_ClockConfig+0x29c>)
20001fa2:	689b      	ldr	r3, [r3, #8]
20001fa4:	e7f1      	b.n	20001f8a <HAL_RCC_ClockConfig+0x262>
20001fa6:	e00f      	b.n	20001fc8 <HAL_RCC_ClockConfig+0x2a0>
20001fa8:	f001 f81c 	bl	20002fe4 <HAL_GetTick>
20001fac:	4602      	mov	r2, r0
20001fae:	68fb      	ldr	r3, [r7, #12]
20001fb0:	1ad3      	subs	r3, r2, r3
20001fb2:	f241 3288 	movw	r2, #5000	; 0x1388
20001fb6:	4293      	cmp	r3, r2
20001fb8:	d906      	bls.n	20001fc8 <HAL_RCC_ClockConfig+0x2a0>
20001fba:	2303      	movs	r3, #3
20001fbc:	e03a      	b.n	20002034 <HAL_RCC_ClockConfig+0x30c>
20001fbe:	bf00      	nop
20001fc0:	40023c00 	.word	0x40023c00
20001fc4:	40023800 	.word	0x40023800
20001fc8:	4b1c      	ldr	r3, [pc, #112]	; (2000203c <HAL_RCC_ClockConfig+0x314>)
20001fca:	689b      	ldr	r3, [r3, #8]
20001fcc:	f003 030c 	and.w	r3, r3, #12
20001fd0:	2b00      	cmp	r3, #0
20001fd2:	d1e9      	bne.n	20001fa8 <HAL_RCC_ClockConfig+0x280>
20001fd4:	4b1a      	ldr	r3, [pc, #104]	; (20002040 <HAL_RCC_ClockConfig+0x318>)
20001fd6:	683a      	ldr	r2, [r7, #0]
20001fd8:	b2d2      	uxtb	r2, r2
20001fda:	701a      	strb	r2, [r3, #0]
20001fdc:	4b18      	ldr	r3, [pc, #96]	; (20002040 <HAL_RCC_ClockConfig+0x318>)
20001fde:	681b      	ldr	r3, [r3, #0]
20001fe0:	f003 020f 	and.w	r2, r3, #15
20001fe4:	683b      	ldr	r3, [r7, #0]
20001fe6:	429a      	cmp	r2, r3
20001fe8:	d001      	beq.n	20001fee <HAL_RCC_ClockConfig+0x2c6>
20001fea:	2301      	movs	r3, #1
20001fec:	e022      	b.n	20002034 <HAL_RCC_ClockConfig+0x30c>
20001fee:	687b      	ldr	r3, [r7, #4]
20001ff0:	681b      	ldr	r3, [r3, #0]
20001ff2:	f003 0304 	and.w	r3, r3, #4
20001ff6:	2b00      	cmp	r3, #0
20001ff8:	d008      	beq.n	2000200c <HAL_RCC_ClockConfig+0x2e4>
20001ffa:	4910      	ldr	r1, [pc, #64]	; (2000203c <HAL_RCC_ClockConfig+0x314>)
20001ffc:	4b0f      	ldr	r3, [pc, #60]	; (2000203c <HAL_RCC_ClockConfig+0x314>)
20001ffe:	689b      	ldr	r3, [r3, #8]
20002000:	f423 52e0 	bic.w	r2, r3, #7168	; 0x1c00
20002004:	687b      	ldr	r3, [r7, #4]
20002006:	68db      	ldr	r3, [r3, #12]
20002008:	4313      	orrs	r3, r2
2000200a:	608b      	str	r3, [r1, #8]
2000200c:	687b      	ldr	r3, [r7, #4]
2000200e:	681b      	ldr	r3, [r3, #0]
20002010:	f003 0308 	and.w	r3, r3, #8
20002014:	2b00      	cmp	r3, #0
20002016:	d009      	beq.n	2000202c <HAL_RCC_ClockConfig+0x304>
20002018:	4908      	ldr	r1, [pc, #32]	; (2000203c <HAL_RCC_ClockConfig+0x314>)
2000201a:	4b08      	ldr	r3, [pc, #32]	; (2000203c <HAL_RCC_ClockConfig+0x314>)
2000201c:	689b      	ldr	r3, [r3, #8]
2000201e:	f423 4260 	bic.w	r2, r3, #57344	; 0xe000
20002022:	687b      	ldr	r3, [r7, #4]
20002024:	691b      	ldr	r3, [r3, #16]
20002026:	00db      	lsls	r3, r3, #3
20002028:	4313      	orrs	r3, r2
2000202a:	608b      	str	r3, [r1, #8]
2000202c:	200f      	movs	r0, #15
2000202e:	f000 ffaf 	bl	20002f90 <HAL_InitTick>
20002032:	2300      	movs	r3, #0
20002034:	4618      	mov	r0, r3
20002036:	3710      	adds	r7, #16
20002038:	46bd      	mov	sp, r7
2000203a:	bd80      	pop	{r7, pc}
2000203c:	40023800 	.word	0x40023800
20002040:	40023c00 	.word	0x40023c00

20002044 <HAL_RCC_MCOConfig>:
20002044:	b580      	push	{r7, lr}
20002046:	b08c      	sub	sp, #48	; 0x30
20002048:	af00      	add	r7, sp, #0
2000204a:	60f8      	str	r0, [r7, #12]
2000204c:	60b9      	str	r1, [r7, #8]
2000204e:	607a      	str	r2, [r7, #4]
20002050:	68fb      	ldr	r3, [r7, #12]
20002052:	2b00      	cmp	r3, #0
20002054:	d127      	bne.n	200020a6 <HAL_RCC_MCOConfig+0x62>
20002056:	4a29      	ldr	r2, [pc, #164]	; (200020fc <HAL_RCC_MCOConfig+0xb8>)
20002058:	4b28      	ldr	r3, [pc, #160]	; (200020fc <HAL_RCC_MCOConfig+0xb8>)
2000205a:	6b1b      	ldr	r3, [r3, #48]	; 0x30
2000205c:	f043 0301 	orr.w	r3, r3, #1
20002060:	6313      	str	r3, [r2, #48]	; 0x30
20002062:	4b26      	ldr	r3, [pc, #152]	; (200020fc <HAL_RCC_MCOConfig+0xb8>)
20002064:	6b1b      	ldr	r3, [r3, #48]	; 0x30
20002066:	f003 0301 	and.w	r3, r3, #1
2000206a:	61bb      	str	r3, [r7, #24]
2000206c:	69bb      	ldr	r3, [r7, #24]
2000206e:	f44f 7380 	mov.w	r3, #256	; 0x100
20002072:	61fb      	str	r3, [r7, #28]
20002074:	2302      	movs	r3, #2
20002076:	623b      	str	r3, [r7, #32]
20002078:	2303      	movs	r3, #3
2000207a:	62bb      	str	r3, [r7, #40]	; 0x28
2000207c:	2300      	movs	r3, #0
2000207e:	627b      	str	r3, [r7, #36]	; 0x24
20002080:	2300      	movs	r3, #0
20002082:	62fb      	str	r3, [r7, #44]	; 0x2c
20002084:	f107 031c 	add.w	r3, r7, #28
20002088:	481d      	ldr	r0, [pc, #116]	; (20002100 <HAL_RCC_MCOConfig+0xbc>)
2000208a:	4619      	mov	r1, r3
2000208c:	f7ff f87a 	bl	20001184 <HAL_GPIO_Init>
20002090:	481a      	ldr	r0, [pc, #104]	; (200020fc <HAL_RCC_MCOConfig+0xb8>)
20002092:	4b1a      	ldr	r3, [pc, #104]	; (200020fc <HAL_RCC_MCOConfig+0xb8>)
20002094:	689b      	ldr	r3, [r3, #8]
20002096:	f023 62ec 	bic.w	r2, r3, #123731968	; 0x7600000
2000209a:	68b9      	ldr	r1, [r7, #8]
2000209c:	687b      	ldr	r3, [r7, #4]
2000209e:	430b      	orrs	r3, r1
200020a0:	4313      	orrs	r3, r2
200020a2:	6083      	str	r3, [r0, #8]
200020a4:	e027      	b.n	200020f6 <HAL_RCC_MCOConfig+0xb2>
200020a6:	4a15      	ldr	r2, [pc, #84]	; (200020fc <HAL_RCC_MCOConfig+0xb8>)
200020a8:	4b14      	ldr	r3, [pc, #80]	; (200020fc <HAL_RCC_MCOConfig+0xb8>)
200020aa:	6b1b      	ldr	r3, [r3, #48]	; 0x30
200020ac:	f043 0304 	orr.w	r3, r3, #4
200020b0:	6313      	str	r3, [r2, #48]	; 0x30
200020b2:	4b12      	ldr	r3, [pc, #72]	; (200020fc <HAL_RCC_MCOConfig+0xb8>)
200020b4:	6b1b      	ldr	r3, [r3, #48]	; 0x30
200020b6:	f003 0304 	and.w	r3, r3, #4
200020ba:	617b      	str	r3, [r7, #20]
200020bc:	697b      	ldr	r3, [r7, #20]
200020be:	f44f 7300 	mov.w	r3, #512	; 0x200
200020c2:	61fb      	str	r3, [r7, #28]
200020c4:	2302      	movs	r3, #2
200020c6:	623b      	str	r3, [r7, #32]
200020c8:	2303      	movs	r3, #3
200020ca:	62bb      	str	r3, [r7, #40]	; 0x28
200020cc:	2300      	movs	r3, #0
200020ce:	627b      	str	r3, [r7, #36]	; 0x24
200020d0:	2300      	movs	r3, #0
200020d2:	62fb      	str	r3, [r7, #44]	; 0x2c
200020d4:	f107 031c 	add.w	r3, r7, #28
200020d8:	480a      	ldr	r0, [pc, #40]	; (20002104 <HAL_RCC_MCOConfig+0xc0>)
200020da:	4619      	mov	r1, r3
200020dc:	f7ff f852 	bl	20001184 <HAL_GPIO_Init>
200020e0:	4806      	ldr	r0, [pc, #24]	; (200020fc <HAL_RCC_MCOConfig+0xb8>)
200020e2:	4b06      	ldr	r3, [pc, #24]	; (200020fc <HAL_RCC_MCOConfig+0xb8>)
200020e4:	689b      	ldr	r3, [r3, #8]
200020e6:	f023 4278 	bic.w	r2, r3, #4160749568	; 0xf8000000
200020ea:	687b      	ldr	r3, [r7, #4]
200020ec:	00d9      	lsls	r1, r3, #3
200020ee:	68bb      	ldr	r3, [r7, #8]
200020f0:	430b      	orrs	r3, r1
200020f2:	4313      	orrs	r3, r2
200020f4:	6083      	str	r3, [r0, #8]
200020f6:	3730      	adds	r7, #48	; 0x30
200020f8:	46bd      	mov	sp, r7
200020fa:	bd80      	pop	{r7, pc}
200020fc:	40023800 	.word	0x40023800
20002100:	40020000 	.word	0x40020000
20002104:	40020800 	.word	0x40020800

20002108 <HAL_RCC_EnableCSS>:
20002108:	b480      	push	{r7}
2000210a:	af00      	add	r7, sp, #0
2000210c:	4b03      	ldr	r3, [pc, #12]	; (2000211c <HAL_RCC_EnableCSS+0x14>)
2000210e:	2201      	movs	r2, #1
20002110:	601a      	str	r2, [r3, #0]
20002112:	46bd      	mov	sp, r7
20002114:	f85d 7b04 	ldr.w	r7, [sp], #4
20002118:	4770      	bx	lr
2000211a:	bf00      	nop
2000211c:	4247004c 	.word	0x4247004c

20002120 <HAL_RCC_DisableCSS>:
20002120:	b480      	push	{r7}
20002122:	af00      	add	r7, sp, #0
20002124:	4b03      	ldr	r3, [pc, #12]	; (20002134 <HAL_RCC_DisableCSS+0x14>)
20002126:	2200      	movs	r2, #0
20002128:	601a      	str	r2, [r3, #0]
2000212a:	46bd      	mov	sp, r7
2000212c:	f85d 7b04 	ldr.w	r7, [sp], #4
20002130:	4770      	bx	lr
20002132:	bf00      	nop
20002134:	4247004c 	.word	0x4247004c

20002138 <HAL_RCC_GetSysClockFreq>:
20002138:	b480      	push	{r7}
2000213a:	b091      	sub	sp, #68	; 0x44
2000213c:	af00      	add	r7, sp, #0
2000213e:	2300      	movs	r3, #0
20002140:	637b      	str	r3, [r7, #52]	; 0x34
20002142:	2300      	movs	r3, #0
20002144:	63fb      	str	r3, [r7, #60]	; 0x3c
20002146:	2300      	movs	r3, #0
20002148:	633b      	str	r3, [r7, #48]	; 0x30
2000214a:	2300      	movs	r3, #0
2000214c:	63bb      	str	r3, [r7, #56]	; 0x38
2000214e:	4b3d      	ldr	r3, [pc, #244]	; (20002244 <HAL_RCC_GetSysClockFreq+0x10c>)
20002150:	689b      	ldr	r3, [r3, #8]
20002152:	f003 030c 	and.w	r3, r3, #12
20002156:	2b04      	cmp	r3, #4
20002158:	d006      	beq.n	20002168 <HAL_RCC_GetSysClockFreq+0x30>
2000215a:	2b08      	cmp	r3, #8
2000215c:	d007      	beq.n	2000216e <HAL_RCC_GetSysClockFreq+0x36>
2000215e:	2b00      	cmp	r3, #0
20002160:	d166      	bne.n	20002230 <HAL_RCC_GetSysClockFreq+0xf8>
20002162:	4b39      	ldr	r3, [pc, #228]	; (20002248 <HAL_RCC_GetSysClockFreq+0x110>)
20002164:	63bb      	str	r3, [r7, #56]	; 0x38
20002166:	e066      	b.n	20002236 <HAL_RCC_GetSysClockFreq+0xfe>
20002168:	4b38      	ldr	r3, [pc, #224]	; (2000224c <HAL_RCC_GetSysClockFreq+0x114>)
2000216a:	63bb      	str	r3, [r7, #56]	; 0x38
2000216c:	e063      	b.n	20002236 <HAL_RCC_GetSysClockFreq+0xfe>
2000216e:	4b35      	ldr	r3, [pc, #212]	; (20002244 <HAL_RCC_GetSysClockFreq+0x10c>)
20002170:	685b      	ldr	r3, [r3, #4]
20002172:	f003 033f 	and.w	r3, r3, #63	; 0x3f
20002176:	637b      	str	r3, [r7, #52]	; 0x34
20002178:	4b32      	ldr	r3, [pc, #200]	; (20002244 <HAL_RCC_GetSysClockFreq+0x10c>)
2000217a:	685b      	ldr	r3, [r3, #4]
2000217c:	f403 0380 	and.w	r3, r3, #4194304	; 0x400000
20002180:	2b00      	cmp	r3, #0
20002182:	d01c      	beq.n	200021be <HAL_RCC_GetSysClockFreq+0x86>
20002184:	4a31      	ldr	r2, [pc, #196]	; (2000224c <HAL_RCC_GetSysClockFreq+0x114>)
20002186:	6b7b      	ldr	r3, [r7, #52]	; 0x34
20002188:	fbb2 f2f3 	udiv	r2, r2, r3
2000218c:	4b2d      	ldr	r3, [pc, #180]	; (20002244 <HAL_RCC_GetSysClockFreq+0x10c>)
2000218e:	6859      	ldr	r1, [r3, #4]
20002190:	f647 73c0 	movw	r3, #32704	; 0x7fc0
20002194:	400b      	ands	r3, r1
20002196:	f647 71c0 	movw	r1, #32704	; 0x7fc0
2000219a:	62f9      	str	r1, [r7, #44]	; 0x2c
2000219c:	6af9      	ldr	r1, [r7, #44]	; 0x2c
2000219e:	fa91 f1a1 	rbit	r1, r1
200021a2:	62b9      	str	r1, [r7, #40]	; 0x28
200021a4:	6ab9      	ldr	r1, [r7, #40]	; 0x28
200021a6:	6279      	str	r1, [r7, #36]	; 0x24
200021a8:	6a79      	ldr	r1, [r7, #36]	; 0x24
200021aa:	fab1 f181 	clz	r1, r1
200021ae:	6239      	str	r1, [r7, #32]
200021b0:	6a39      	ldr	r1, [r7, #32]
200021b2:	b2c9      	uxtb	r1, r1
200021b4:	40cb      	lsrs	r3, r1
200021b6:	fb03 f302 	mul.w	r3, r3, r2
200021ba:	63fb      	str	r3, [r7, #60]	; 0x3c
200021bc:	e01b      	b.n	200021f6 <HAL_RCC_GetSysClockFreq+0xbe>
200021be:	4a22      	ldr	r2, [pc, #136]	; (20002248 <HAL_RCC_GetSysClockFreq+0x110>)
200021c0:	6b7b      	ldr	r3, [r7, #52]	; 0x34
200021c2:	fbb2 f2f3 	udiv	r2, r2, r3
200021c6:	4b1f      	ldr	r3, [pc, #124]	; (20002244 <HAL_RCC_GetSysClockFreq+0x10c>)
200021c8:	6859      	ldr	r1, [r3, #4]
200021ca:	f647 73c0 	movw	r3, #32704	; 0x7fc0
200021ce:	400b      	ands	r3, r1
200021d0:	f647 71c0 	movw	r1, #32704	; 0x7fc0
200021d4:	61f9      	str	r1, [r7, #28]
200021d6:	69f9      	ldr	r1, [r7, #28]
200021d8:	fa91 f1a1 	rbit	r1, r1
200021dc:	61b9      	str	r1, [r7, #24]
200021de:	69b9      	ldr	r1, [r7, #24]
200021e0:	6179      	str	r1, [r7, #20]
200021e2:	6979      	ldr	r1, [r7, #20]
200021e4:	fab1 f181 	clz	r1, r1
200021e8:	6139      	str	r1, [r7, #16]
200021ea:	6939      	ldr	r1, [r7, #16]
200021ec:	b2c9      	uxtb	r1, r1
200021ee:	40cb      	lsrs	r3, r1
200021f0:	fb03 f302 	mul.w	r3, r3, r2
200021f4:	63fb      	str	r3, [r7, #60]	; 0x3c
200021f6:	4b13      	ldr	r3, [pc, #76]	; (20002244 <HAL_RCC_GetSysClockFreq+0x10c>)
200021f8:	685b      	ldr	r3, [r3, #4]
200021fa:	f403 3340 	and.w	r3, r3, #196608	; 0x30000
200021fe:	f44f 3240 	mov.w	r2, #196608	; 0x30000
20002202:	60fa      	str	r2, [r7, #12]
20002204:	68fa      	ldr	r2, [r7, #12]
20002206:	fa92 f2a2 	rbit	r2, r2
2000220a:	60ba      	str	r2, [r7, #8]
2000220c:	68ba      	ldr	r2, [r7, #8]
2000220e:	607a      	str	r2, [r7, #4]
20002210:	687a      	ldr	r2, [r7, #4]
20002212:	fab2 f282 	clz	r2, r2
20002216:	603a      	str	r2, [r7, #0]
20002218:	683a      	ldr	r2, [r7, #0]
2000221a:	b2d2      	uxtb	r2, r2
2000221c:	40d3      	lsrs	r3, r2
2000221e:	3301      	adds	r3, #1
20002220:	005b      	lsls	r3, r3, #1
20002222:	633b      	str	r3, [r7, #48]	; 0x30
20002224:	6bfa      	ldr	r2, [r7, #60]	; 0x3c
20002226:	6b3b      	ldr	r3, [r7, #48]	; 0x30
20002228:	fbb2 f3f3 	udiv	r3, r2, r3
2000222c:	63bb      	str	r3, [r7, #56]	; 0x38
2000222e:	e002      	b.n	20002236 <HAL_RCC_GetSysClockFreq+0xfe>
20002230:	4b05      	ldr	r3, [pc, #20]	; (20002248 <HAL_RCC_GetSysClockFreq+0x110>)
20002232:	63bb      	str	r3, [r7, #56]	; 0x38
20002234:	bf00      	nop
20002236:	6bbb      	ldr	r3, [r7, #56]	; 0x38
20002238:	4618      	mov	r0, r3
2000223a:	3744      	adds	r7, #68	; 0x44
2000223c:	46bd      	mov	sp, r7
2000223e:	f85d 7b04 	ldr.w	r7, [sp], #4
20002242:	4770      	bx	lr
20002244:	40023800 	.word	0x40023800
20002248:	00f42400 	.word	0x00f42400
2000224c:	007a1200 	.word	0x007a1200

20002250 <HAL_RCC_GetHCLKFreq>:
20002250:	b580      	push	{r7, lr}
20002252:	b084      	sub	sp, #16
20002254:	af00      	add	r7, sp, #0
20002256:	f7ff ff6f 	bl	20002138 <HAL_RCC_GetSysClockFreq>
2000225a:	4601      	mov	r1, r0
2000225c:	4b0f      	ldr	r3, [pc, #60]	; (2000229c <HAL_RCC_GetHCLKFreq+0x4c>)
2000225e:	689b      	ldr	r3, [r3, #8]
20002260:	f003 03f0 	and.w	r3, r3, #240	; 0xf0
20002264:	22f0      	movs	r2, #240	; 0xf0
20002266:	60fa      	str	r2, [r7, #12]
20002268:	68fa      	ldr	r2, [r7, #12]
2000226a:	fa92 f2a2 	rbit	r2, r2
2000226e:	60ba      	str	r2, [r7, #8]
20002270:	68ba      	ldr	r2, [r7, #8]
20002272:	607a      	str	r2, [r7, #4]
20002274:	687a      	ldr	r2, [r7, #4]
20002276:	fab2 f282 	clz	r2, r2
2000227a:	603a      	str	r2, [r7, #0]
2000227c:	683a      	ldr	r2, [r7, #0]
2000227e:	b2d2      	uxtb	r2, r2
20002280:	40d3      	lsrs	r3, r2
20002282:	4a07      	ldr	r2, [pc, #28]	; (200022a0 <HAL_RCC_GetHCLKFreq+0x50>)
20002284:	5cd3      	ldrb	r3, [r2, r3]
20002286:	fa21 f303 	lsr.w	r3, r1, r3
2000228a:	4a06      	ldr	r2, [pc, #24]	; (200022a4 <HAL_RCC_GetHCLKFreq+0x54>)
2000228c:	6013      	str	r3, [r2, #0]
2000228e:	4b05      	ldr	r3, [pc, #20]	; (200022a4 <HAL_RCC_GetHCLKFreq+0x54>)
20002290:	681b      	ldr	r3, [r3, #0]
20002292:	4618      	mov	r0, r3
20002294:	3710      	adds	r7, #16
20002296:	46bd      	mov	sp, r7
20002298:	bd80      	pop	{r7, pc}
2000229a:	bf00      	nop
2000229c:	40023800 	.word	0x40023800
200022a0:	20003fe8 	.word	0x20003fe8
200022a4:	20004010 	.word	0x20004010

200022a8 <HAL_RCC_GetPCLK1Freq>:
200022a8:	b580      	push	{r7, lr}
200022aa:	b084      	sub	sp, #16
200022ac:	af00      	add	r7, sp, #0
200022ae:	f7ff ffcf 	bl	20002250 <HAL_RCC_GetHCLKFreq>
200022b2:	4601      	mov	r1, r0
200022b4:	4b0d      	ldr	r3, [pc, #52]	; (200022ec <HAL_RCC_GetPCLK1Freq+0x44>)
200022b6:	689b      	ldr	r3, [r3, #8]
200022b8:	f403 53e0 	and.w	r3, r3, #7168	; 0x1c00
200022bc:	f44f 52e0 	mov.w	r2, #7168	; 0x1c00
200022c0:	60fa      	str	r2, [r7, #12]
200022c2:	68fa      	ldr	r2, [r7, #12]
200022c4:	fa92 f2a2 	rbit	r2, r2
200022c8:	60ba      	str	r2, [r7, #8]
200022ca:	68ba      	ldr	r2, [r7, #8]
200022cc:	607a      	str	r2, [r7, #4]
200022ce:	687a      	ldr	r2, [r7, #4]
200022d0:	fab2 f282 	clz	r2, r2
200022d4:	603a      	str	r2, [r7, #0]
200022d6:	683a      	ldr	r2, [r7, #0]
200022d8:	b2d2      	uxtb	r2, r2
200022da:	40d3      	lsrs	r3, r2
200022dc:	4a04      	ldr	r2, [pc, #16]	; (200022f0 <HAL_RCC_GetPCLK1Freq+0x48>)
200022de:	5cd3      	ldrb	r3, [r2, r3]
200022e0:	fa21 f303 	lsr.w	r3, r1, r3
200022e4:	4618      	mov	r0, r3
200022e6:	3710      	adds	r7, #16
200022e8:	46bd      	mov	sp, r7
200022ea:	bd80      	pop	{r7, pc}
200022ec:	40023800 	.word	0x40023800
200022f0:	20003fe8 	.word	0x20003fe8

200022f4 <HAL_RCC_GetPCLK2Freq>:
200022f4:	b580      	push	{r7, lr}
200022f6:	b084      	sub	sp, #16
200022f8:	af00      	add	r7, sp, #0
200022fa:	f7ff ffa9 	bl	20002250 <HAL_RCC_GetHCLKFreq>
200022fe:	4601      	mov	r1, r0
20002300:	4b0d      	ldr	r3, [pc, #52]	; (20002338 <HAL_RCC_GetPCLK2Freq+0x44>)
20002302:	689b      	ldr	r3, [r3, #8]
20002304:	f403 4360 	and.w	r3, r3, #57344	; 0xe000
20002308:	f44f 4260 	mov.w	r2, #57344	; 0xe000
2000230c:	60fa      	str	r2, [r7, #12]
2000230e:	68fa      	ldr	r2, [r7, #12]
20002310:	fa92 f2a2 	rbit	r2, r2
20002314:	60ba      	str	r2, [r7, #8]
20002316:	68ba      	ldr	r2, [r7, #8]
20002318:	607a      	str	r2, [r7, #4]
2000231a:	687a      	ldr	r2, [r7, #4]
2000231c:	fab2 f282 	clz	r2, r2
20002320:	603a      	str	r2, [r7, #0]
20002322:	683a      	ldr	r2, [r7, #0]
20002324:	b2d2      	uxtb	r2, r2
20002326:	40d3      	lsrs	r3, r2
20002328:	4a04      	ldr	r2, [pc, #16]	; (2000233c <HAL_RCC_GetPCLK2Freq+0x48>)
2000232a:	5cd3      	ldrb	r3, [r2, r3]
2000232c:	fa21 f303 	lsr.w	r3, r1, r3
20002330:	4618      	mov	r0, r3
20002332:	3710      	adds	r7, #16
20002334:	46bd      	mov	sp, r7
20002336:	bd80      	pop	{r7, pc}
20002338:	40023800 	.word	0x40023800
2000233c:	20003fe8 	.word	0x20003fe8

20002340 <HAL_RCC_GetOscConfig>:
20002340:	b480      	push	{r7}
20002342:	b093      	sub	sp, #76	; 0x4c
20002344:	af00      	add	r7, sp, #0
20002346:	6078      	str	r0, [r7, #4]
20002348:	687b      	ldr	r3, [r7, #4]
2000234a:	220f      	movs	r2, #15
2000234c:	601a      	str	r2, [r3, #0]
2000234e:	4b62      	ldr	r3, [pc, #392]	; (200024d8 <HAL_RCC_GetOscConfig+0x198>)
20002350:	681b      	ldr	r3, [r3, #0]
20002352:	f403 2380 	and.w	r3, r3, #262144	; 0x40000
20002356:	2b00      	cmp	r3, #0
20002358:	d003      	beq.n	20002362 <HAL_RCC_GetOscConfig+0x22>
2000235a:	687b      	ldr	r3, [r7, #4]
2000235c:	2205      	movs	r2, #5
2000235e:	605a      	str	r2, [r3, #4]
20002360:	e00c      	b.n	2000237c <HAL_RCC_GetOscConfig+0x3c>
20002362:	4b5d      	ldr	r3, [pc, #372]	; (200024d8 <HAL_RCC_GetOscConfig+0x198>)
20002364:	681b      	ldr	r3, [r3, #0]
20002366:	f403 3380 	and.w	r3, r3, #65536	; 0x10000
2000236a:	2b00      	cmp	r3, #0
2000236c:	d003      	beq.n	20002376 <HAL_RCC_GetOscConfig+0x36>
2000236e:	687b      	ldr	r3, [r7, #4]
20002370:	2201      	movs	r2, #1
20002372:	605a      	str	r2, [r3, #4]
20002374:	e002      	b.n	2000237c <HAL_RCC_GetOscConfig+0x3c>
20002376:	687b      	ldr	r3, [r7, #4]
20002378:	2200      	movs	r2, #0
2000237a:	605a      	str	r2, [r3, #4]
2000237c:	4b56      	ldr	r3, [pc, #344]	; (200024d8 <HAL_RCC_GetOscConfig+0x198>)
2000237e:	681b      	ldr	r3, [r3, #0]
20002380:	f003 0301 	and.w	r3, r3, #1
20002384:	2b00      	cmp	r3, #0
20002386:	d003      	beq.n	20002390 <HAL_RCC_GetOscConfig+0x50>
20002388:	687b      	ldr	r3, [r7, #4]
2000238a:	2201      	movs	r2, #1
2000238c:	60da      	str	r2, [r3, #12]
2000238e:	e002      	b.n	20002396 <HAL_RCC_GetOscConfig+0x56>
20002390:	687b      	ldr	r3, [r7, #4]
20002392:	2200      	movs	r2, #0
20002394:	60da      	str	r2, [r3, #12]
20002396:	4b50      	ldr	r3, [pc, #320]	; (200024d8 <HAL_RCC_GetOscConfig+0x198>)
20002398:	681b      	ldr	r3, [r3, #0]
2000239a:	f003 03f8 	and.w	r3, r3, #248	; 0xf8
2000239e:	22f8      	movs	r2, #248	; 0xf8
200023a0:	647a      	str	r2, [r7, #68]	; 0x44
200023a2:	6c7a      	ldr	r2, [r7, #68]	; 0x44
200023a4:	fa92 f2a2 	rbit	r2, r2
200023a8:	643a      	str	r2, [r7, #64]	; 0x40
200023aa:	6c3a      	ldr	r2, [r7, #64]	; 0x40
200023ac:	63fa      	str	r2, [r7, #60]	; 0x3c
200023ae:	6bfa      	ldr	r2, [r7, #60]	; 0x3c
200023b0:	fab2 f282 	clz	r2, r2
200023b4:	63ba      	str	r2, [r7, #56]	; 0x38
200023b6:	6bba      	ldr	r2, [r7, #56]	; 0x38
200023b8:	b2d2      	uxtb	r2, r2
200023ba:	fa23 f202 	lsr.w	r2, r3, r2
200023be:	687b      	ldr	r3, [r7, #4]
200023c0:	611a      	str	r2, [r3, #16]
200023c2:	4b45      	ldr	r3, [pc, #276]	; (200024d8 <HAL_RCC_GetOscConfig+0x198>)
200023c4:	6f1b      	ldr	r3, [r3, #112]	; 0x70
200023c6:	f003 0304 	and.w	r3, r3, #4
200023ca:	2b00      	cmp	r3, #0
200023cc:	d003      	beq.n	200023d6 <HAL_RCC_GetOscConfig+0x96>
200023ce:	687b      	ldr	r3, [r7, #4]
200023d0:	2205      	movs	r2, #5
200023d2:	609a      	str	r2, [r3, #8]
200023d4:	e00c      	b.n	200023f0 <HAL_RCC_GetOscConfig+0xb0>
200023d6:	4b40      	ldr	r3, [pc, #256]	; (200024d8 <HAL_RCC_GetOscConfig+0x198>)
200023d8:	6f1b      	ldr	r3, [r3, #112]	; 0x70
200023da:	f003 0301 	and.w	r3, r3, #1
200023de:	2b00      	cmp	r3, #0
200023e0:	d003      	beq.n	200023ea <HAL_RCC_GetOscConfig+0xaa>
200023e2:	687b      	ldr	r3, [r7, #4]
200023e4:	2201      	movs	r2, #1
200023e6:	609a      	str	r2, [r3, #8]
200023e8:	e002      	b.n	200023f0 <HAL_RCC_GetOscConfig+0xb0>
200023ea:	687b      	ldr	r3, [r7, #4]
200023ec:	2200      	movs	r2, #0
200023ee:	609a      	str	r2, [r3, #8]
200023f0:	4b39      	ldr	r3, [pc, #228]	; (200024d8 <HAL_RCC_GetOscConfig+0x198>)
200023f2:	6f5b      	ldr	r3, [r3, #116]	; 0x74
200023f4:	f003 0301 	and.w	r3, r3, #1
200023f8:	2b00      	cmp	r3, #0
200023fa:	d003      	beq.n	20002404 <HAL_RCC_GetOscConfig+0xc4>
200023fc:	687b      	ldr	r3, [r7, #4]
200023fe:	2201      	movs	r2, #1
20002400:	615a      	str	r2, [r3, #20]
20002402:	e002      	b.n	2000240a <HAL_RCC_GetOscConfig+0xca>
20002404:	687b      	ldr	r3, [r7, #4]
20002406:	2200      	movs	r2, #0
20002408:	615a      	str	r2, [r3, #20]
2000240a:	4b33      	ldr	r3, [pc, #204]	; (200024d8 <HAL_RCC_GetOscConfig+0x198>)
2000240c:	681b      	ldr	r3, [r3, #0]
2000240e:	f003 7380 	and.w	r3, r3, #16777216	; 0x1000000
20002412:	2b00      	cmp	r3, #0
20002414:	d003      	beq.n	2000241e <HAL_RCC_GetOscConfig+0xde>
20002416:	687b      	ldr	r3, [r7, #4]
20002418:	2202      	movs	r2, #2
2000241a:	619a      	str	r2, [r3, #24]
2000241c:	e002      	b.n	20002424 <HAL_RCC_GetOscConfig+0xe4>
2000241e:	687b      	ldr	r3, [r7, #4]
20002420:	2201      	movs	r2, #1
20002422:	619a      	str	r2, [r3, #24]
20002424:	4b2c      	ldr	r3, [pc, #176]	; (200024d8 <HAL_RCC_GetOscConfig+0x198>)
20002426:	685b      	ldr	r3, [r3, #4]
20002428:	f403 0280 	and.w	r2, r3, #4194304	; 0x400000
2000242c:	687b      	ldr	r3, [r7, #4]
2000242e:	61da      	str	r2, [r3, #28]
20002430:	4b29      	ldr	r3, [pc, #164]	; (200024d8 <HAL_RCC_GetOscConfig+0x198>)
20002432:	685b      	ldr	r3, [r3, #4]
20002434:	f003 023f 	and.w	r2, r3, #63	; 0x3f
20002438:	687b      	ldr	r3, [r7, #4]
2000243a:	621a      	str	r2, [r3, #32]
2000243c:	4b26      	ldr	r3, [pc, #152]	; (200024d8 <HAL_RCC_GetOscConfig+0x198>)
2000243e:	685a      	ldr	r2, [r3, #4]
20002440:	f647 73c0 	movw	r3, #32704	; 0x7fc0
20002444:	4013      	ands	r3, r2
20002446:	f647 72c0 	movw	r2, #32704	; 0x7fc0
2000244a:	637a      	str	r2, [r7, #52]	; 0x34
2000244c:	6b7a      	ldr	r2, [r7, #52]	; 0x34
2000244e:	fa92 f2a2 	rbit	r2, r2
20002452:	633a      	str	r2, [r7, #48]	; 0x30
20002454:	6b3a      	ldr	r2, [r7, #48]	; 0x30
20002456:	62fa      	str	r2, [r7, #44]	; 0x2c
20002458:	6afa      	ldr	r2, [r7, #44]	; 0x2c
2000245a:	fab2 f282 	clz	r2, r2
2000245e:	62ba      	str	r2, [r7, #40]	; 0x28
20002460:	6aba      	ldr	r2, [r7, #40]	; 0x28
20002462:	b2d2      	uxtb	r2, r2
20002464:	fa23 f202 	lsr.w	r2, r3, r2
20002468:	687b      	ldr	r3, [r7, #4]
2000246a:	625a      	str	r2, [r3, #36]	; 0x24
2000246c:	4b1a      	ldr	r3, [pc, #104]	; (200024d8 <HAL_RCC_GetOscConfig+0x198>)
2000246e:	685b      	ldr	r3, [r3, #4]
20002470:	f403 3340 	and.w	r3, r3, #196608	; 0x30000
20002474:	f503 3380 	add.w	r3, r3, #65536	; 0x10000
20002478:	005b      	lsls	r3, r3, #1
2000247a:	f44f 3240 	mov.w	r2, #196608	; 0x30000
2000247e:	627a      	str	r2, [r7, #36]	; 0x24
20002480:	6a7a      	ldr	r2, [r7, #36]	; 0x24
20002482:	fa92 f2a2 	rbit	r2, r2
20002486:	623a      	str	r2, [r7, #32]
20002488:	6a3a      	ldr	r2, [r7, #32]
2000248a:	61fa      	str	r2, [r7, #28]
2000248c:	69fa      	ldr	r2, [r7, #28]
2000248e:	fab2 f282 	clz	r2, r2
20002492:	61ba      	str	r2, [r7, #24]
20002494:	69ba      	ldr	r2, [r7, #24]
20002496:	b2d2      	uxtb	r2, r2
20002498:	fa23 f202 	lsr.w	r2, r3, r2
2000249c:	687b      	ldr	r3, [r7, #4]
2000249e:	629a      	str	r2, [r3, #40]	; 0x28
200024a0:	4b0d      	ldr	r3, [pc, #52]	; (200024d8 <HAL_RCC_GetOscConfig+0x198>)
200024a2:	685b      	ldr	r3, [r3, #4]
200024a4:	f003 6370 	and.w	r3, r3, #251658240	; 0xf000000
200024a8:	f04f 6270 	mov.w	r2, #251658240	; 0xf000000
200024ac:	617a      	str	r2, [r7, #20]
200024ae:	697a      	ldr	r2, [r7, #20]
200024b0:	fa92 f2a2 	rbit	r2, r2
200024b4:	613a      	str	r2, [r7, #16]
200024b6:	693a      	ldr	r2, [r7, #16]
200024b8:	60fa      	str	r2, [r7, #12]
200024ba:	68fa      	ldr	r2, [r7, #12]
200024bc:	fab2 f282 	clz	r2, r2
200024c0:	60ba      	str	r2, [r7, #8]
200024c2:	68ba      	ldr	r2, [r7, #8]
200024c4:	b2d2      	uxtb	r2, r2
200024c6:	fa23 f202 	lsr.w	r2, r3, r2
200024ca:	687b      	ldr	r3, [r7, #4]
200024cc:	62da      	str	r2, [r3, #44]	; 0x2c
200024ce:	374c      	adds	r7, #76	; 0x4c
200024d0:	46bd      	mov	sp, r7
200024d2:	f85d 7b04 	ldr.w	r7, [sp], #4
200024d6:	4770      	bx	lr
200024d8:	40023800 	.word	0x40023800

200024dc <HAL_RCC_GetClockConfig>:
200024dc:	b480      	push	{r7}
200024de:	b083      	sub	sp, #12
200024e0:	af00      	add	r7, sp, #0
200024e2:	6078      	str	r0, [r7, #4]
200024e4:	6039      	str	r1, [r7, #0]
200024e6:	687b      	ldr	r3, [r7, #4]
200024e8:	220f      	movs	r2, #15
200024ea:	601a      	str	r2, [r3, #0]
200024ec:	4b11      	ldr	r3, [pc, #68]	; (20002534 <HAL_RCC_GetClockConfig+0x58>)
200024ee:	689b      	ldr	r3, [r3, #8]
200024f0:	f003 0203 	and.w	r2, r3, #3
200024f4:	687b      	ldr	r3, [r7, #4]
200024f6:	605a      	str	r2, [r3, #4]
200024f8:	4b0e      	ldr	r3, [pc, #56]	; (20002534 <HAL_RCC_GetClockConfig+0x58>)
200024fa:	689b      	ldr	r3, [r3, #8]
200024fc:	f003 02f0 	and.w	r2, r3, #240	; 0xf0
20002500:	687b      	ldr	r3, [r7, #4]
20002502:	609a      	str	r2, [r3, #8]
20002504:	4b0b      	ldr	r3, [pc, #44]	; (20002534 <HAL_RCC_GetClockConfig+0x58>)
20002506:	689b      	ldr	r3, [r3, #8]
20002508:	f403 52e0 	and.w	r2, r3, #7168	; 0x1c00
2000250c:	687b      	ldr	r3, [r7, #4]
2000250e:	60da      	str	r2, [r3, #12]
20002510:	4b08      	ldr	r3, [pc, #32]	; (20002534 <HAL_RCC_GetClockConfig+0x58>)
20002512:	689b      	ldr	r3, [r3, #8]
20002514:	f403 4360 	and.w	r3, r3, #57344	; 0xe000
20002518:	08da      	lsrs	r2, r3, #3
2000251a:	687b      	ldr	r3, [r7, #4]
2000251c:	611a      	str	r2, [r3, #16]
2000251e:	4b06      	ldr	r3, [pc, #24]	; (20002538 <HAL_RCC_GetClockConfig+0x5c>)
20002520:	681b      	ldr	r3, [r3, #0]
20002522:	f003 020f 	and.w	r2, r3, #15
20002526:	683b      	ldr	r3, [r7, #0]
20002528:	601a      	str	r2, [r3, #0]
2000252a:	370c      	adds	r7, #12
2000252c:	46bd      	mov	sp, r7
2000252e:	f85d 7b04 	ldr.w	r7, [sp], #4
20002532:	4770      	bx	lr
20002534:	40023800 	.word	0x40023800
20002538:	40023c00 	.word	0x40023c00

2000253c <HAL_RCC_NMI_IRQHandler>:
2000253c:	b580      	push	{r7, lr}
2000253e:	af00      	add	r7, sp, #0
20002540:	4b05      	ldr	r3, [pc, #20]	; (20002558 <HAL_RCC_NMI_IRQHandler+0x1c>)
20002542:	68db      	ldr	r3, [r3, #12]
20002544:	f003 0380 	and.w	r3, r3, #128	; 0x80
20002548:	2b00      	cmp	r3, #0
2000254a:	d004      	beq.n	20002556 <HAL_RCC_NMI_IRQHandler+0x1a>
2000254c:	f000 f808 	bl	20002560 <HAL_RCC_CSSCallback>
20002550:	4b02      	ldr	r3, [pc, #8]	; (2000255c <HAL_RCC_NMI_IRQHandler+0x20>)
20002552:	2280      	movs	r2, #128	; 0x80
20002554:	701a      	strb	r2, [r3, #0]
20002556:	bd80      	pop	{r7, pc}
20002558:	40023800 	.word	0x40023800
2000255c:	4002380e 	.word	0x4002380e

20002560 <HAL_RCC_CSSCallback>:
20002560:	b480      	push	{r7}
20002562:	af00      	add	r7, sp, #0
20002564:	46bd      	mov	sp, r7
20002566:	f85d 7b04 	ldr.w	r7, [sp], #4
2000256a:	4770      	bx	lr

2000256c <SystemInit>:
2000256c:	b480      	push	{r7}
2000256e:	af00      	add	r7, sp, #0
20002570:	4a12      	ldr	r2, [pc, #72]	; (200025bc <SystemInit+0x50>)
20002572:	4b12      	ldr	r3, [pc, #72]	; (200025bc <SystemInit+0x50>)
20002574:	681b      	ldr	r3, [r3, #0]
20002576:	f043 0301 	orr.w	r3, r3, #1
2000257a:	6013      	str	r3, [r2, #0]
2000257c:	4b0f      	ldr	r3, [pc, #60]	; (200025bc <SystemInit+0x50>)
2000257e:	2200      	movs	r2, #0
20002580:	609a      	str	r2, [r3, #8]
20002582:	4a0e      	ldr	r2, [pc, #56]	; (200025bc <SystemInit+0x50>)
20002584:	4b0d      	ldr	r3, [pc, #52]	; (200025bc <SystemInit+0x50>)
20002586:	681b      	ldr	r3, [r3, #0]
20002588:	f023 7384 	bic.w	r3, r3, #17301504	; 0x1080000
2000258c:	f423 3380 	bic.w	r3, r3, #65536	; 0x10000
20002590:	6013      	str	r3, [r2, #0]
20002592:	4b0a      	ldr	r3, [pc, #40]	; (200025bc <SystemInit+0x50>)
20002594:	4a0a      	ldr	r2, [pc, #40]	; (200025c0 <SystemInit+0x54>)
20002596:	605a      	str	r2, [r3, #4]
20002598:	4a08      	ldr	r2, [pc, #32]	; (200025bc <SystemInit+0x50>)
2000259a:	4b08      	ldr	r3, [pc, #32]	; (200025bc <SystemInit+0x50>)
2000259c:	681b      	ldr	r3, [r3, #0]
2000259e:	f423 2380 	bic.w	r3, r3, #262144	; 0x40000
200025a2:	6013      	str	r3, [r2, #0]
200025a4:	4b05      	ldr	r3, [pc, #20]	; (200025bc <SystemInit+0x50>)
200025a6:	2200      	movs	r2, #0
200025a8:	60da      	str	r2, [r3, #12]
200025aa:	4b06      	ldr	r3, [pc, #24]	; (200025c4 <SystemInit+0x58>)
200025ac:	f04f 6200 	mov.w	r2, #134217728	; 0x8000000
200025b0:	609a      	str	r2, [r3, #8]
200025b2:	46bd      	mov	sp, r7
200025b4:	f85d 7b04 	ldr.w	r7, [sp], #4
200025b8:	4770      	bx	lr
200025ba:	bf00      	nop
200025bc:	40023800 	.word	0x40023800
200025c0:	24003010 	.word	0x24003010
200025c4:	e000ed00 	.word	0xe000ed00

200025c8 <SystemCoreClockUpdate>:
200025c8:	b480      	push	{r7}
200025ca:	b087      	sub	sp, #28
200025cc:	af00      	add	r7, sp, #0
200025ce:	2300      	movs	r3, #0
200025d0:	613b      	str	r3, [r7, #16]
200025d2:	2300      	movs	r3, #0
200025d4:	617b      	str	r3, [r7, #20]
200025d6:	2302      	movs	r3, #2
200025d8:	60fb      	str	r3, [r7, #12]
200025da:	2300      	movs	r3, #0
200025dc:	60bb      	str	r3, [r7, #8]
200025de:	2302      	movs	r3, #2
200025e0:	607b      	str	r3, [r7, #4]
200025e2:	4b32      	ldr	r3, [pc, #200]	; (200026ac <SystemCoreClockUpdate+0xe4>)
200025e4:	689b      	ldr	r3, [r3, #8]
200025e6:	f003 030c 	and.w	r3, r3, #12
200025ea:	613b      	str	r3, [r7, #16]
200025ec:	693b      	ldr	r3, [r7, #16]
200025ee:	2b04      	cmp	r3, #4
200025f0:	d007      	beq.n	20002602 <SystemCoreClockUpdate+0x3a>
200025f2:	2b08      	cmp	r3, #8
200025f4:	d009      	beq.n	2000260a <SystemCoreClockUpdate+0x42>
200025f6:	2b00      	cmp	r3, #0
200025f8:	d13f      	bne.n	2000267a <SystemCoreClockUpdate+0xb2>
200025fa:	4b2d      	ldr	r3, [pc, #180]	; (200026b0 <SystemCoreClockUpdate+0xe8>)
200025fc:	4a2d      	ldr	r2, [pc, #180]	; (200026b4 <SystemCoreClockUpdate+0xec>)
200025fe:	601a      	str	r2, [r3, #0]
20002600:	e03f      	b.n	20002682 <SystemCoreClockUpdate+0xba>
20002602:	4b2b      	ldr	r3, [pc, #172]	; (200026b0 <SystemCoreClockUpdate+0xe8>)
20002604:	4a2c      	ldr	r2, [pc, #176]	; (200026b8 <SystemCoreClockUpdate+0xf0>)
20002606:	601a      	str	r2, [r3, #0]
20002608:	e03b      	b.n	20002682 <SystemCoreClockUpdate+0xba>
2000260a:	4b28      	ldr	r3, [pc, #160]	; (200026ac <SystemCoreClockUpdate+0xe4>)
2000260c:	685b      	ldr	r3, [r3, #4]
2000260e:	f403 0380 	and.w	r3, r3, #4194304	; 0x400000
20002612:	0d9b      	lsrs	r3, r3, #22
20002614:	60bb      	str	r3, [r7, #8]
20002616:	4b25      	ldr	r3, [pc, #148]	; (200026ac <SystemCoreClockUpdate+0xe4>)
20002618:	685b      	ldr	r3, [r3, #4]
2000261a:	f003 033f 	and.w	r3, r3, #63	; 0x3f
2000261e:	607b      	str	r3, [r7, #4]
20002620:	68bb      	ldr	r3, [r7, #8]
20002622:	2b00      	cmp	r3, #0
20002624:	d00d      	beq.n	20002642 <SystemCoreClockUpdate+0x7a>
20002626:	4a24      	ldr	r2, [pc, #144]	; (200026b8 <SystemCoreClockUpdate+0xf0>)
20002628:	687b      	ldr	r3, [r7, #4]
2000262a:	fbb2 f2f3 	udiv	r2, r2, r3
2000262e:	4b1f      	ldr	r3, [pc, #124]	; (200026ac <SystemCoreClockUpdate+0xe4>)
20002630:	6859      	ldr	r1, [r3, #4]
20002632:	f647 73c0 	movw	r3, #32704	; 0x7fc0
20002636:	400b      	ands	r3, r1
20002638:	099b      	lsrs	r3, r3, #6
2000263a:	fb03 f302 	mul.w	r3, r3, r2
2000263e:	617b      	str	r3, [r7, #20]
20002640:	e00c      	b.n	2000265c <SystemCoreClockUpdate+0x94>
20002642:	4a1c      	ldr	r2, [pc, #112]	; (200026b4 <SystemCoreClockUpdate+0xec>)
20002644:	687b      	ldr	r3, [r7, #4]
20002646:	fbb2 f2f3 	udiv	r2, r2, r3
2000264a:	4b18      	ldr	r3, [pc, #96]	; (200026ac <SystemCoreClockUpdate+0xe4>)
2000264c:	6859      	ldr	r1, [r3, #4]
2000264e:	f647 73c0 	movw	r3, #32704	; 0x7fc0
20002652:	400b      	ands	r3, r1
20002654:	099b      	lsrs	r3, r3, #6
20002656:	fb03 f302 	mul.w	r3, r3, r2
2000265a:	617b      	str	r3, [r7, #20]
2000265c:	4b13      	ldr	r3, [pc, #76]	; (200026ac <SystemCoreClockUpdate+0xe4>)
2000265e:	685b      	ldr	r3, [r3, #4]
20002660:	f403 3340 	and.w	r3, r3, #196608	; 0x30000
20002664:	0c1b      	lsrs	r3, r3, #16
20002666:	3301      	adds	r3, #1
20002668:	005b      	lsls	r3, r3, #1
2000266a:	60fb      	str	r3, [r7, #12]
2000266c:	697a      	ldr	r2, [r7, #20]
2000266e:	68fb      	ldr	r3, [r7, #12]
20002670:	fbb2 f3f3 	udiv	r3, r2, r3
20002674:	4a0e      	ldr	r2, [pc, #56]	; (200026b0 <SystemCoreClockUpdate+0xe8>)
20002676:	6013      	str	r3, [r2, #0]
20002678:	e003      	b.n	20002682 <SystemCoreClockUpdate+0xba>
2000267a:	4b0d      	ldr	r3, [pc, #52]	; (200026b0 <SystemCoreClockUpdate+0xe8>)
2000267c:	4a0d      	ldr	r2, [pc, #52]	; (200026b4 <SystemCoreClockUpdate+0xec>)
2000267e:	601a      	str	r2, [r3, #0]
20002680:	bf00      	nop
20002682:	4b0a      	ldr	r3, [pc, #40]	; (200026ac <SystemCoreClockUpdate+0xe4>)
20002684:	689b      	ldr	r3, [r3, #8]
20002686:	f003 03f0 	and.w	r3, r3, #240	; 0xf0
2000268a:	091b      	lsrs	r3, r3, #4
2000268c:	4a0b      	ldr	r2, [pc, #44]	; (200026bc <SystemCoreClockUpdate+0xf4>)
2000268e:	5cd3      	ldrb	r3, [r2, r3]
20002690:	b2db      	uxtb	r3, r3
20002692:	613b      	str	r3, [r7, #16]
20002694:	4b06      	ldr	r3, [pc, #24]	; (200026b0 <SystemCoreClockUpdate+0xe8>)
20002696:	681a      	ldr	r2, [r3, #0]
20002698:	693b      	ldr	r3, [r7, #16]
2000269a:	fa22 f303 	lsr.w	r3, r2, r3
2000269e:	4a04      	ldr	r2, [pc, #16]	; (200026b0 <SystemCoreClockUpdate+0xe8>)
200026a0:	6013      	str	r3, [r2, #0]
200026a2:	371c      	adds	r7, #28
200026a4:	46bd      	mov	sp, r7
200026a6:	f85d 7b04 	ldr.w	r7, [sp], #4
200026aa:	4770      	bx	lr
200026ac:	40023800 	.word	0x40023800
200026b0:	20004010 	.word	0x20004010
200026b4:	00f42400 	.word	0x00f42400
200026b8:	007a1200 	.word	0x007a1200
200026bc:	20004014 	.word	0x20004014

200026c0 <main>:
200026c0:	b580      	push	{r7, lr}
200026c2:	af00      	add	r7, sp, #0
200026c4:	4b06      	ldr	r3, [pc, #24]	; (200026e0 <main+0x20>)
200026c6:	4a07      	ldr	r2, [pc, #28]	; (200026e4 <main+0x24>)
200026c8:	609a      	str	r2, [r3, #8]
200026ca:	f7fd fe09 	bl	200002e0 <FlashSystemConfig>
200026ce:	f000 fdf1 	bl	200032b4 <stubInit>
200026d2:	4b05      	ldr	r3, [pc, #20]	; (200026e8 <main+0x28>)
200026d4:	681b      	ldr	r3, [r3, #0]
200026d6:	4618      	mov	r0, r3
200026d8:	f000 fe06 	bl	200032e8 <swdStub>
200026dc:	e7f9      	b.n	200026d2 <main+0x12>
200026de:	bf00      	nop
200026e0:	e000ed00 	.word	0xe000ed00
200026e4:	20000000 	.word	0x20000000
200026e8:	20004e00 	.word	0x20004e00

200026ec <configureClock>:
200026ec:	b580      	push	{r7, lr}
200026ee:	b086      	sub	sp, #24
200026f0:	af00      	add	r7, sp, #0
200026f2:	2301      	movs	r3, #1
200026f4:	60bb      	str	r3, [r7, #8]
200026f6:	f44f 6300 	mov.w	r3, #2048	; 0x800
200026fa:	607b      	str	r3, [r7, #4]
200026fc:	2300      	movs	r3, #0
200026fe:	60fb      	str	r3, [r7, #12]
20002700:	2302      	movs	r3, #2
20002702:	613b      	str	r3, [r7, #16]
20002704:	1d3b      	adds	r3, r7, #4
20002706:	4803      	ldr	r0, [pc, #12]	; (20002714 <configureClock+0x28>)
20002708:	4619      	mov	r1, r3
2000270a:	f7fe fd3b 	bl	20001184 <HAL_GPIO_Init>
2000270e:	3718      	adds	r7, #24
20002710:	46bd      	mov	sp, r7
20002712:	bd80      	pop	{r7, pc}
20002714:	40020800 	.word	0x40020800

20002718 <configureTargetResetPin>:
20002718:	b580      	push	{r7, lr}
2000271a:	b086      	sub	sp, #24
2000271c:	af00      	add	r7, sp, #0
2000271e:	2311      	movs	r3, #17
20002720:	60bb      	str	r3, [r7, #8]
20002722:	f44f 7380 	mov.w	r3, #256	; 0x100
20002726:	607b      	str	r3, [r7, #4]
20002728:	2301      	movs	r3, #1
2000272a:	60fb      	str	r3, [r7, #12]
2000272c:	2302      	movs	r3, #2
2000272e:	613b      	str	r3, [r7, #16]
20002730:	1d3b      	adds	r3, r7, #4
20002732:	4803      	ldr	r0, [pc, #12]	; (20002740 <configureTargetResetPin+0x28>)
20002734:	4619      	mov	r1, r3
20002736:	f7fe fd25 	bl	20001184 <HAL_GPIO_Init>
2000273a:	3718      	adds	r7, #24
2000273c:	46bd      	mov	sp, r7
2000273e:	bd80      	pop	{r7, pc}
20002740:	40020800 	.word	0x40020800

20002744 <SWDIO_OutputMode>:
20002744:	b580      	push	{r7, lr}
20002746:	b086      	sub	sp, #24
20002748:	af00      	add	r7, sp, #0
2000274a:	2301      	movs	r3, #1
2000274c:	60bb      	str	r3, [r7, #8]
2000274e:	f44f 5380 	mov.w	r3, #4096	; 0x1000
20002752:	607b      	str	r3, [r7, #4]
20002754:	2301      	movs	r3, #1
20002756:	60fb      	str	r3, [r7, #12]
20002758:	2302      	movs	r3, #2
2000275a:	613b      	str	r3, [r7, #16]
2000275c:	1d3b      	adds	r3, r7, #4
2000275e:	4803      	ldr	r0, [pc, #12]	; (2000276c <SWDIO_OutputMode+0x28>)
20002760:	4619      	mov	r1, r3
20002762:	f7fe fd0f 	bl	20001184 <HAL_GPIO_Init>
20002766:	3718      	adds	r7, #24
20002768:	46bd      	mov	sp, r7
2000276a:	bd80      	pop	{r7, pc}
2000276c:	40020800 	.word	0x40020800

20002770 <SWDIO_InputMode>:
20002770:	b580      	push	{r7, lr}
20002772:	b086      	sub	sp, #24
20002774:	af00      	add	r7, sp, #0
20002776:	2300      	movs	r3, #0
20002778:	60bb      	str	r3, [r7, #8]
2000277a:	f44f 5380 	mov.w	r3, #4096	; 0x1000
2000277e:	607b      	str	r3, [r7, #4]
20002780:	2301      	movs	r3, #1
20002782:	60fb      	str	r3, [r7, #12]
20002784:	2302      	movs	r3, #2
20002786:	613b      	str	r3, [r7, #16]
20002788:	1d3b      	adds	r3, r7, #4
2000278a:	4803      	ldr	r0, [pc, #12]	; (20002798 <SWDIO_InputMode+0x28>)
2000278c:	4619      	mov	r1, r3
2000278e:	f7fe fcf9 	bl	20001184 <HAL_GPIO_Init>
20002792:	3718      	adds	r7, #24
20002794:	46bd      	mov	sp, r7
20002796:	bd80      	pop	{r7, pc}
20002798:	40020800 	.word	0x40020800

2000279c <configure_IOPorts>:
2000279c:	b580      	push	{r7, lr}
2000279e:	b084      	sub	sp, #16
200027a0:	af00      	add	r7, sp, #0
200027a2:	4a1c      	ldr	r2, [pc, #112]	; (20002814 <configure_IOPorts+0x78>)
200027a4:	4b1b      	ldr	r3, [pc, #108]	; (20002814 <configure_IOPorts+0x78>)
200027a6:	6b1b      	ldr	r3, [r3, #48]	; 0x30
200027a8:	f043 0301 	orr.w	r3, r3, #1
200027ac:	6313      	str	r3, [r2, #48]	; 0x30
200027ae:	4b19      	ldr	r3, [pc, #100]	; (20002814 <configure_IOPorts+0x78>)
200027b0:	6b1b      	ldr	r3, [r3, #48]	; 0x30
200027b2:	f003 0301 	and.w	r3, r3, #1
200027b6:	60fb      	str	r3, [r7, #12]
200027b8:	68fb      	ldr	r3, [r7, #12]
200027ba:	4a16      	ldr	r2, [pc, #88]	; (20002814 <configure_IOPorts+0x78>)
200027bc:	4b15      	ldr	r3, [pc, #84]	; (20002814 <configure_IOPorts+0x78>)
200027be:	6b1b      	ldr	r3, [r3, #48]	; 0x30
200027c0:	f043 0302 	orr.w	r3, r3, #2
200027c4:	6313      	str	r3, [r2, #48]	; 0x30
200027c6:	4b13      	ldr	r3, [pc, #76]	; (20002814 <configure_IOPorts+0x78>)
200027c8:	6b1b      	ldr	r3, [r3, #48]	; 0x30
200027ca:	f003 0302 	and.w	r3, r3, #2
200027ce:	60bb      	str	r3, [r7, #8]
200027d0:	68bb      	ldr	r3, [r7, #8]
200027d2:	4a10      	ldr	r2, [pc, #64]	; (20002814 <configure_IOPorts+0x78>)
200027d4:	4b0f      	ldr	r3, [pc, #60]	; (20002814 <configure_IOPorts+0x78>)
200027d6:	6b1b      	ldr	r3, [r3, #48]	; 0x30
200027d8:	f043 0304 	orr.w	r3, r3, #4
200027dc:	6313      	str	r3, [r2, #48]	; 0x30
200027de:	4b0d      	ldr	r3, [pc, #52]	; (20002814 <configure_IOPorts+0x78>)
200027e0:	6b1b      	ldr	r3, [r3, #48]	; 0x30
200027e2:	f003 0304 	and.w	r3, r3, #4
200027e6:	607b      	str	r3, [r7, #4]
200027e8:	687b      	ldr	r3, [r7, #4]
200027ea:	4a0a      	ldr	r2, [pc, #40]	; (20002814 <configure_IOPorts+0x78>)
200027ec:	4b09      	ldr	r3, [pc, #36]	; (20002814 <configure_IOPorts+0x78>)
200027ee:	6b1b      	ldr	r3, [r3, #48]	; 0x30
200027f0:	f043 0340 	orr.w	r3, r3, #64	; 0x40
200027f4:	6313      	str	r3, [r2, #48]	; 0x30
200027f6:	4b07      	ldr	r3, [pc, #28]	; (20002814 <configure_IOPorts+0x78>)
200027f8:	6b1b      	ldr	r3, [r3, #48]	; 0x30
200027fa:	f003 0340 	and.w	r3, r3, #64	; 0x40
200027fe:	603b      	str	r3, [r7, #0]
20002800:	683b      	ldr	r3, [r7, #0]
20002802:	f7ff ff73 	bl	200026ec <configureClock>
20002806:	f7ff ff87 	bl	20002718 <configureTargetResetPin>
2000280a:	f7ff ff9b 	bl	20002744 <SWDIO_OutputMode>
2000280e:	3710      	adds	r7, #16
20002810:	46bd      	mov	sp, r7
20002812:	bd80      	pop	{r7, pc}
20002814:	40023800 	.word	0x40023800

20002818 <configureLED>:
20002818:	b580      	push	{r7, lr}
2000281a:	b08a      	sub	sp, #40	; 0x28
2000281c:	af00      	add	r7, sp, #0
2000281e:	4a21      	ldr	r2, [pc, #132]	; (200028a4 <configureLED+0x8c>)
20002820:	4b20      	ldr	r3, [pc, #128]	; (200028a4 <configureLED+0x8c>)
20002822:	6b1b      	ldr	r3, [r3, #48]	; 0x30
20002824:	f043 0301 	orr.w	r3, r3, #1
20002828:	6313      	str	r3, [r2, #48]	; 0x30
2000282a:	4b1e      	ldr	r3, [pc, #120]	; (200028a4 <configureLED+0x8c>)
2000282c:	6b1b      	ldr	r3, [r3, #48]	; 0x30
2000282e:	f003 0301 	and.w	r3, r3, #1
20002832:	613b      	str	r3, [r7, #16]
20002834:	693b      	ldr	r3, [r7, #16]
20002836:	4a1b      	ldr	r2, [pc, #108]	; (200028a4 <configureLED+0x8c>)
20002838:	4b1a      	ldr	r3, [pc, #104]	; (200028a4 <configureLED+0x8c>)
2000283a:	6b1b      	ldr	r3, [r3, #48]	; 0x30
2000283c:	f043 0302 	orr.w	r3, r3, #2
20002840:	6313      	str	r3, [r2, #48]	; 0x30
20002842:	4b18      	ldr	r3, [pc, #96]	; (200028a4 <configureLED+0x8c>)
20002844:	6b1b      	ldr	r3, [r3, #48]	; 0x30
20002846:	f003 0302 	and.w	r3, r3, #2
2000284a:	60fb      	str	r3, [r7, #12]
2000284c:	68fb      	ldr	r3, [r7, #12]
2000284e:	4a15      	ldr	r2, [pc, #84]	; (200028a4 <configureLED+0x8c>)
20002850:	4b14      	ldr	r3, [pc, #80]	; (200028a4 <configureLED+0x8c>)
20002852:	6b1b      	ldr	r3, [r3, #48]	; 0x30
20002854:	f043 0304 	orr.w	r3, r3, #4
20002858:	6313      	str	r3, [r2, #48]	; 0x30
2000285a:	4b12      	ldr	r3, [pc, #72]	; (200028a4 <configureLED+0x8c>)
2000285c:	6b1b      	ldr	r3, [r3, #48]	; 0x30
2000285e:	f003 0304 	and.w	r3, r3, #4
20002862:	60bb      	str	r3, [r7, #8]
20002864:	68bb      	ldr	r3, [r7, #8]
20002866:	4a0f      	ldr	r2, [pc, #60]	; (200028a4 <configureLED+0x8c>)
20002868:	4b0e      	ldr	r3, [pc, #56]	; (200028a4 <configureLED+0x8c>)
2000286a:	6b1b      	ldr	r3, [r3, #48]	; 0x30
2000286c:	f043 0340 	orr.w	r3, r3, #64	; 0x40
20002870:	6313      	str	r3, [r2, #48]	; 0x30
20002872:	4b0c      	ldr	r3, [pc, #48]	; (200028a4 <configureLED+0x8c>)
20002874:	6b1b      	ldr	r3, [r3, #48]	; 0x30
20002876:	f003 0340 	and.w	r3, r3, #64	; 0x40
2000287a:	607b      	str	r3, [r7, #4]
2000287c:	687b      	ldr	r3, [r7, #4]
2000287e:	2301      	movs	r3, #1
20002880:	61bb      	str	r3, [r7, #24]
20002882:	f44f 43c0 	mov.w	r3, #24576	; 0x6000
20002886:	617b      	str	r3, [r7, #20]
20002888:	2300      	movs	r3, #0
2000288a:	61fb      	str	r3, [r7, #28]
2000288c:	2303      	movs	r3, #3
2000288e:	623b      	str	r3, [r7, #32]
20002890:	f107 0314 	add.w	r3, r7, #20
20002894:	4804      	ldr	r0, [pc, #16]	; (200028a8 <configureLED+0x90>)
20002896:	4619      	mov	r1, r3
20002898:	f7fe fc74 	bl	20001184 <HAL_GPIO_Init>
2000289c:	3728      	adds	r7, #40	; 0x28
2000289e:	46bd      	mov	sp, r7
200028a0:	bd80      	pop	{r7, pc}
200028a2:	bf00      	nop
200028a4:	40023800 	.word	0x40023800
200028a8:	40021800 	.word	0x40021800

200028ac <initButton>:
200028ac:	b580      	push	{r7, lr}
200028ae:	b086      	sub	sp, #24
200028b0:	af00      	add	r7, sp, #0
200028b2:	4a0e      	ldr	r2, [pc, #56]	; (200028ec <initButton+0x40>)
200028b4:	4b0d      	ldr	r3, [pc, #52]	; (200028ec <initButton+0x40>)
200028b6:	6b1b      	ldr	r3, [r3, #48]	; 0x30
200028b8:	f043 0301 	orr.w	r3, r3, #1
200028bc:	6313      	str	r3, [r2, #48]	; 0x30
200028be:	4b0b      	ldr	r3, [pc, #44]	; (200028ec <initButton+0x40>)
200028c0:	6b1b      	ldr	r3, [r3, #48]	; 0x30
200028c2:	f003 0301 	and.w	r3, r3, #1
200028c6:	603b      	str	r3, [r7, #0]
200028c8:	683b      	ldr	r3, [r7, #0]
200028ca:	2300      	movs	r3, #0
200028cc:	60bb      	str	r3, [r7, #8]
200028ce:	2301      	movs	r3, #1
200028d0:	607b      	str	r3, [r7, #4]
200028d2:	2302      	movs	r3, #2
200028d4:	60fb      	str	r3, [r7, #12]
200028d6:	2303      	movs	r3, #3
200028d8:	613b      	str	r3, [r7, #16]
200028da:	1d3b      	adds	r3, r7, #4
200028dc:	4804      	ldr	r0, [pc, #16]	; (200028f0 <initButton+0x44>)
200028de:	4619      	mov	r1, r3
200028e0:	f7fe fc50 	bl	20001184 <HAL_GPIO_Init>
200028e4:	3718      	adds	r7, #24
200028e6:	46bd      	mov	sp, r7
200028e8:	bd80      	pop	{r7, pc}
200028ea:	bf00      	nop
200028ec:	40023800 	.word	0x40023800
200028f0:	40020000 	.word	0x40020000

200028f4 <Button_GetState>:
200028f4:	b580      	push	{r7, lr}
200028f6:	af00      	add	r7, sp, #0
200028f8:	4803      	ldr	r0, [pc, #12]	; (20002908 <Button_GetState+0x14>)
200028fa:	2101      	movs	r1, #1
200028fc:	f7fe fef0 	bl	200016e0 <HAL_GPIO_ReadPin>
20002900:	4603      	mov	r3, r0
20002902:	4618      	mov	r0, r3
20002904:	bd80      	pop	{r7, pc}
20002906:	bf00      	nop
20002908:	40020000 	.word	0x40020000

2000290c <configureUartPorts>:
2000290c:	b580      	push	{r7, lr}
2000290e:	b088      	sub	sp, #32
20002910:	af00      	add	r7, sp, #0
20002912:	4a21      	ldr	r2, [pc, #132]	; (20002998 <configureUartPorts+0x8c>)
20002914:	4b20      	ldr	r3, [pc, #128]	; (20002998 <configureUartPorts+0x8c>)
20002916:	6b1b      	ldr	r3, [r3, #48]	; 0x30
20002918:	f043 0301 	orr.w	r3, r3, #1
2000291c:	6313      	str	r3, [r2, #48]	; 0x30
2000291e:	4b1e      	ldr	r3, [pc, #120]	; (20002998 <configureUartPorts+0x8c>)
20002920:	6b1b      	ldr	r3, [r3, #48]	; 0x30
20002922:	f003 0301 	and.w	r3, r3, #1
20002926:	60bb      	str	r3, [r7, #8]
20002928:	68bb      	ldr	r3, [r7, #8]
2000292a:	4a1b      	ldr	r2, [pc, #108]	; (20002998 <configureUartPorts+0x8c>)
2000292c:	4b1a      	ldr	r3, [pc, #104]	; (20002998 <configureUartPorts+0x8c>)
2000292e:	6b1b      	ldr	r3, [r3, #48]	; 0x30
20002930:	f043 0301 	orr.w	r3, r3, #1
20002934:	6313      	str	r3, [r2, #48]	; 0x30
20002936:	4b18      	ldr	r3, [pc, #96]	; (20002998 <configureUartPorts+0x8c>)
20002938:	6b1b      	ldr	r3, [r3, #48]	; 0x30
2000293a:	f003 0301 	and.w	r3, r3, #1
2000293e:	607b      	str	r3, [r7, #4]
20002940:	687b      	ldr	r3, [r7, #4]
20002942:	4a15      	ldr	r2, [pc, #84]	; (20002998 <configureUartPorts+0x8c>)
20002944:	4b14      	ldr	r3, [pc, #80]	; (20002998 <configureUartPorts+0x8c>)
20002946:	6c5b      	ldr	r3, [r3, #68]	; 0x44
20002948:	f043 0310 	orr.w	r3, r3, #16
2000294c:	6453      	str	r3, [r2, #68]	; 0x44
2000294e:	4b12      	ldr	r3, [pc, #72]	; (20002998 <configureUartPorts+0x8c>)
20002950:	6c5b      	ldr	r3, [r3, #68]	; 0x44
20002952:	f003 0310 	and.w	r3, r3, #16
20002956:	603b      	str	r3, [r7, #0]
20002958:	683b      	ldr	r3, [r7, #0]
2000295a:	f44f 7300 	mov.w	r3, #512	; 0x200
2000295e:	60fb      	str	r3, [r7, #12]
20002960:	2302      	movs	r3, #2
20002962:	613b      	str	r3, [r7, #16]
20002964:	2300      	movs	r3, #0
20002966:	617b      	str	r3, [r7, #20]
20002968:	2302      	movs	r3, #2
2000296a:	61bb      	str	r3, [r7, #24]
2000296c:	2307      	movs	r3, #7
2000296e:	61fb      	str	r3, [r7, #28]
20002970:	f107 030c 	add.w	r3, r7, #12
20002974:	4809      	ldr	r0, [pc, #36]	; (2000299c <configureUartPorts+0x90>)
20002976:	4619      	mov	r1, r3
20002978:	f7fe fc04 	bl	20001184 <HAL_GPIO_Init>
2000297c:	f44f 6380 	mov.w	r3, #1024	; 0x400
20002980:	60fb      	str	r3, [r7, #12]
20002982:	2307      	movs	r3, #7
20002984:	61fb      	str	r3, [r7, #28]
20002986:	f107 030c 	add.w	r3, r7, #12
2000298a:	4804      	ldr	r0, [pc, #16]	; (2000299c <configureUartPorts+0x90>)
2000298c:	4619      	mov	r1, r3
2000298e:	f7fe fbf9 	bl	20001184 <HAL_GPIO_Init>
20002992:	3720      	adds	r7, #32
20002994:	46bd      	mov	sp, r7
20002996:	bd80      	pop	{r7, pc}
20002998:	40023800 	.word	0x40023800
2000299c:	40020000 	.word	0x40020000

200029a0 <NVIC_SetPriorityGrouping>:
200029a0:	b480      	push	{r7}
200029a2:	b085      	sub	sp, #20
200029a4:	af00      	add	r7, sp, #0
200029a6:	6078      	str	r0, [r7, #4]
200029a8:	687b      	ldr	r3, [r7, #4]
200029aa:	f003 0307 	and.w	r3, r3, #7
200029ae:	60fb      	str	r3, [r7, #12]
200029b0:	4b0c      	ldr	r3, [pc, #48]	; (200029e4 <NVIC_SetPriorityGrouping+0x44>)
200029b2:	68db      	ldr	r3, [r3, #12]
200029b4:	60bb      	str	r3, [r7, #8]
200029b6:	68ba      	ldr	r2, [r7, #8]
200029b8:	f64f 03ff 	movw	r3, #63743	; 0xf8ff
200029bc:	4013      	ands	r3, r2
200029be:	60bb      	str	r3, [r7, #8]
200029c0:	68fb      	ldr	r3, [r7, #12]
200029c2:	021a      	lsls	r2, r3, #8
200029c4:	68bb      	ldr	r3, [r7, #8]
200029c6:	4313      	orrs	r3, r2
200029c8:	f043 63bf 	orr.w	r3, r3, #100139008	; 0x5f80000
200029cc:	f443 3300 	orr.w	r3, r3, #131072	; 0x20000
200029d0:	60bb      	str	r3, [r7, #8]
200029d2:	4a04      	ldr	r2, [pc, #16]	; (200029e4 <NVIC_SetPriorityGrouping+0x44>)
200029d4:	68bb      	ldr	r3, [r7, #8]
200029d6:	60d3      	str	r3, [r2, #12]
200029d8:	3714      	adds	r7, #20
200029da:	46bd      	mov	sp, r7
200029dc:	f85d 7b04 	ldr.w	r7, [sp], #4
200029e0:	4770      	bx	lr
200029e2:	bf00      	nop
200029e4:	e000ed00 	.word	0xe000ed00

200029e8 <NVIC_GetPriorityGrouping>:
200029e8:	b480      	push	{r7}
200029ea:	af00      	add	r7, sp, #0
200029ec:	4b04      	ldr	r3, [pc, #16]	; (20002a00 <NVIC_GetPriorityGrouping+0x18>)
200029ee:	68db      	ldr	r3, [r3, #12]
200029f0:	f403 63e0 	and.w	r3, r3, #1792	; 0x700
200029f4:	0a1b      	lsrs	r3, r3, #8
200029f6:	4618      	mov	r0, r3
200029f8:	46bd      	mov	sp, r7
200029fa:	f85d 7b04 	ldr.w	r7, [sp], #4
200029fe:	4770      	bx	lr
20002a00:	e000ed00 	.word	0xe000ed00

20002a04 <NVIC_EnableIRQ>:
20002a04:	b480      	push	{r7}
20002a06:	b083      	sub	sp, #12
20002a08:	af00      	add	r7, sp, #0
20002a0a:	4603      	mov	r3, r0
20002a0c:	71fb      	strb	r3, [r7, #7]
20002a0e:	4908      	ldr	r1, [pc, #32]	; (20002a30 <NVIC_EnableIRQ+0x2c>)
20002a10:	f997 3007 	ldrsb.w	r3, [r7, #7]
20002a14:	095b      	lsrs	r3, r3, #5
20002a16:	79fa      	ldrb	r2, [r7, #7]
20002a18:	f002 021f 	and.w	r2, r2, #31
20002a1c:	2001      	movs	r0, #1
20002a1e:	fa00 f202 	lsl.w	r2, r0, r2
20002a22:	f841 2023 	str.w	r2, [r1, r3, lsl #2]
20002a26:	370c      	adds	r7, #12
20002a28:	46bd      	mov	sp, r7
20002a2a:	f85d 7b04 	ldr.w	r7, [sp], #4
20002a2e:	4770      	bx	lr
20002a30:	e000e100 	.word	0xe000e100

20002a34 <NVIC_DisableIRQ>:
20002a34:	b480      	push	{r7}
20002a36:	b083      	sub	sp, #12
20002a38:	af00      	add	r7, sp, #0
20002a3a:	4603      	mov	r3, r0
20002a3c:	71fb      	strb	r3, [r7, #7]
20002a3e:	4909      	ldr	r1, [pc, #36]	; (20002a64 <NVIC_DisableIRQ+0x30>)
20002a40:	f997 3007 	ldrsb.w	r3, [r7, #7]
20002a44:	095b      	lsrs	r3, r3, #5
20002a46:	79fa      	ldrb	r2, [r7, #7]
20002a48:	f002 021f 	and.w	r2, r2, #31
20002a4c:	2001      	movs	r0, #1
20002a4e:	fa00 f202 	lsl.w	r2, r0, r2
20002a52:	3320      	adds	r3, #32
20002a54:	f841 2023 	str.w	r2, [r1, r3, lsl #2]
20002a58:	370c      	adds	r7, #12
20002a5a:	46bd      	mov	sp, r7
20002a5c:	f85d 7b04 	ldr.w	r7, [sp], #4
20002a60:	4770      	bx	lr
20002a62:	bf00      	nop
20002a64:	e000e100 	.word	0xe000e100

20002a68 <NVIC_GetPendingIRQ>:
20002a68:	b480      	push	{r7}
20002a6a:	b083      	sub	sp, #12
20002a6c:	af00      	add	r7, sp, #0
20002a6e:	4603      	mov	r3, r0
20002a70:	71fb      	strb	r3, [r7, #7]
20002a72:	4a0c      	ldr	r2, [pc, #48]	; (20002aa4 <NVIC_GetPendingIRQ+0x3c>)
20002a74:	f997 3007 	ldrsb.w	r3, [r7, #7]
20002a78:	095b      	lsrs	r3, r3, #5
20002a7a:	3340      	adds	r3, #64	; 0x40
20002a7c:	f852 3023 	ldr.w	r3, [r2, r3, lsl #2]
20002a80:	79fa      	ldrb	r2, [r7, #7]
20002a82:	f002 021f 	and.w	r2, r2, #31
20002a86:	2101      	movs	r1, #1
20002a88:	fa01 f202 	lsl.w	r2, r1, r2
20002a8c:	4013      	ands	r3, r2
20002a8e:	2b00      	cmp	r3, #0
20002a90:	d001      	beq.n	20002a96 <NVIC_GetPendingIRQ+0x2e>
20002a92:	2301      	movs	r3, #1
20002a94:	e000      	b.n	20002a98 <NVIC_GetPendingIRQ+0x30>
20002a96:	2300      	movs	r3, #0
20002a98:	4618      	mov	r0, r3
20002a9a:	370c      	adds	r7, #12
20002a9c:	46bd      	mov	sp, r7
20002a9e:	f85d 7b04 	ldr.w	r7, [sp], #4
20002aa2:	4770      	bx	lr
20002aa4:	e000e100 	.word	0xe000e100

20002aa8 <NVIC_SetPendingIRQ>:
20002aa8:	b480      	push	{r7}
20002aaa:	b083      	sub	sp, #12
20002aac:	af00      	add	r7, sp, #0
20002aae:	4603      	mov	r3, r0
20002ab0:	71fb      	strb	r3, [r7, #7]
20002ab2:	4909      	ldr	r1, [pc, #36]	; (20002ad8 <NVIC_SetPendingIRQ+0x30>)
20002ab4:	f997 3007 	ldrsb.w	r3, [r7, #7]
20002ab8:	095b      	lsrs	r3, r3, #5
20002aba:	79fa      	ldrb	r2, [r7, #7]
20002abc:	f002 021f 	and.w	r2, r2, #31
20002ac0:	2001      	movs	r0, #1
20002ac2:	fa00 f202 	lsl.w	r2, r0, r2
20002ac6:	3340      	adds	r3, #64	; 0x40
20002ac8:	f841 2023 	str.w	r2, [r1, r3, lsl #2]
20002acc:	370c      	adds	r7, #12
20002ace:	46bd      	mov	sp, r7
20002ad0:	f85d 7b04 	ldr.w	r7, [sp], #4
20002ad4:	4770      	bx	lr
20002ad6:	bf00      	nop
20002ad8:	e000e100 	.word	0xe000e100

20002adc <NVIC_ClearPendingIRQ>:
20002adc:	b480      	push	{r7}
20002ade:	b083      	sub	sp, #12
20002ae0:	af00      	add	r7, sp, #0
20002ae2:	4603      	mov	r3, r0
20002ae4:	71fb      	strb	r3, [r7, #7]
20002ae6:	4909      	ldr	r1, [pc, #36]	; (20002b0c <NVIC_ClearPendingIRQ+0x30>)
20002ae8:	f997 3007 	ldrsb.w	r3, [r7, #7]
20002aec:	095b      	lsrs	r3, r3, #5
20002aee:	79fa      	ldrb	r2, [r7, #7]
20002af0:	f002 021f 	and.w	r2, r2, #31
20002af4:	2001      	movs	r0, #1
20002af6:	fa00 f202 	lsl.w	r2, r0, r2
20002afa:	3360      	adds	r3, #96	; 0x60
20002afc:	f841 2023 	str.w	r2, [r1, r3, lsl #2]
20002b00:	370c      	adds	r7, #12
20002b02:	46bd      	mov	sp, r7
20002b04:	f85d 7b04 	ldr.w	r7, [sp], #4
20002b08:	4770      	bx	lr
20002b0a:	bf00      	nop
20002b0c:	e000e100 	.word	0xe000e100

20002b10 <NVIC_GetActive>:
20002b10:	b480      	push	{r7}
20002b12:	b083      	sub	sp, #12
20002b14:	af00      	add	r7, sp, #0
20002b16:	4603      	mov	r3, r0
20002b18:	71fb      	strb	r3, [r7, #7]
20002b1a:	4a0c      	ldr	r2, [pc, #48]	; (20002b4c <NVIC_GetActive+0x3c>)
20002b1c:	f997 3007 	ldrsb.w	r3, [r7, #7]
20002b20:	095b      	lsrs	r3, r3, #5
20002b22:	3380      	adds	r3, #128	; 0x80
20002b24:	f852 3023 	ldr.w	r3, [r2, r3, lsl #2]
20002b28:	79fa      	ldrb	r2, [r7, #7]
20002b2a:	f002 021f 	and.w	r2, r2, #31
20002b2e:	2101      	movs	r1, #1
20002b30:	fa01 f202 	lsl.w	r2, r1, r2
20002b34:	4013      	ands	r3, r2
20002b36:	2b00      	cmp	r3, #0
20002b38:	d001      	beq.n	20002b3e <NVIC_GetActive+0x2e>
20002b3a:	2301      	movs	r3, #1
20002b3c:	e000      	b.n	20002b40 <NVIC_GetActive+0x30>
20002b3e:	2300      	movs	r3, #0
20002b40:	4618      	mov	r0, r3
20002b42:	370c      	adds	r7, #12
20002b44:	46bd      	mov	sp, r7
20002b46:	f85d 7b04 	ldr.w	r7, [sp], #4
20002b4a:	4770      	bx	lr
20002b4c:	e000e100 	.word	0xe000e100

20002b50 <NVIC_SetPriority>:
20002b50:	b480      	push	{r7}
20002b52:	b083      	sub	sp, #12
20002b54:	af00      	add	r7, sp, #0
20002b56:	4603      	mov	r3, r0
20002b58:	6039      	str	r1, [r7, #0]
20002b5a:	71fb      	strb	r3, [r7, #7]
20002b5c:	f997 3007 	ldrsb.w	r3, [r7, #7]
20002b60:	2b00      	cmp	r3, #0
20002b62:	da0b      	bge.n	20002b7c <NVIC_SetPriority+0x2c>
20002b64:	490d      	ldr	r1, [pc, #52]	; (20002b9c <NVIC_SetPriority+0x4c>)
20002b66:	79fb      	ldrb	r3, [r7, #7]
20002b68:	f003 030f 	and.w	r3, r3, #15
20002b6c:	3b04      	subs	r3, #4
20002b6e:	683a      	ldr	r2, [r7, #0]
20002b70:	b2d2      	uxtb	r2, r2
20002b72:	0112      	lsls	r2, r2, #4
20002b74:	b2d2      	uxtb	r2, r2
20002b76:	440b      	add	r3, r1
20002b78:	761a      	strb	r2, [r3, #24]
20002b7a:	e009      	b.n	20002b90 <NVIC_SetPriority+0x40>
20002b7c:	4908      	ldr	r1, [pc, #32]	; (20002ba0 <NVIC_SetPriority+0x50>)
20002b7e:	f997 3007 	ldrsb.w	r3, [r7, #7]
20002b82:	683a      	ldr	r2, [r7, #0]
20002b84:	b2d2      	uxtb	r2, r2
20002b86:	0112      	lsls	r2, r2, #4
20002b88:	b2d2      	uxtb	r2, r2
20002b8a:	440b      	add	r3, r1
20002b8c:	f883 2300 	strb.w	r2, [r3, #768]	; 0x300
20002b90:	370c      	adds	r7, #12
20002b92:	46bd      	mov	sp, r7
20002b94:	f85d 7b04 	ldr.w	r7, [sp], #4
20002b98:	4770      	bx	lr
20002b9a:	bf00      	nop
20002b9c:	e000ed00 	.word	0xe000ed00
20002ba0:	e000e100 	.word	0xe000e100

20002ba4 <NVIC_GetPriority>:
20002ba4:	b480      	push	{r7}
20002ba6:	b083      	sub	sp, #12
20002ba8:	af00      	add	r7, sp, #0
20002baa:	4603      	mov	r3, r0
20002bac:	71fb      	strb	r3, [r7, #7]
20002bae:	f997 3007 	ldrsb.w	r3, [r7, #7]
20002bb2:	2b00      	cmp	r3, #0
20002bb4:	da0a      	bge.n	20002bcc <NVIC_GetPriority+0x28>
20002bb6:	4a0d      	ldr	r2, [pc, #52]	; (20002bec <NVIC_GetPriority+0x48>)
20002bb8:	79fb      	ldrb	r3, [r7, #7]
20002bba:	f003 030f 	and.w	r3, r3, #15
20002bbe:	3b04      	subs	r3, #4
20002bc0:	4413      	add	r3, r2
20002bc2:	7e1b      	ldrb	r3, [r3, #24]
20002bc4:	b2db      	uxtb	r3, r3
20002bc6:	091b      	lsrs	r3, r3, #4
20002bc8:	b2db      	uxtb	r3, r3
20002bca:	e008      	b.n	20002bde <NVIC_GetPriority+0x3a>
20002bcc:	4a08      	ldr	r2, [pc, #32]	; (20002bf0 <NVIC_GetPriority+0x4c>)
20002bce:	f997 3007 	ldrsb.w	r3, [r7, #7]
20002bd2:	4413      	add	r3, r2
20002bd4:	f893 3300 	ldrb.w	r3, [r3, #768]	; 0x300
20002bd8:	b2db      	uxtb	r3, r3
20002bda:	091b      	lsrs	r3, r3, #4
20002bdc:	b2db      	uxtb	r3, r3
20002bde:	4618      	mov	r0, r3
20002be0:	370c      	adds	r7, #12
20002be2:	46bd      	mov	sp, r7
20002be4:	f85d 7b04 	ldr.w	r7, [sp], #4
20002be8:	4770      	bx	lr
20002bea:	bf00      	nop
20002bec:	e000ed00 	.word	0xe000ed00
20002bf0:	e000e100 	.word	0xe000e100

20002bf4 <NVIC_EncodePriority>:
20002bf4:	b480      	push	{r7}
20002bf6:	b089      	sub	sp, #36	; 0x24
20002bf8:	af00      	add	r7, sp, #0
20002bfa:	60f8      	str	r0, [r7, #12]
20002bfc:	60b9      	str	r1, [r7, #8]
20002bfe:	607a      	str	r2, [r7, #4]
20002c00:	68fb      	ldr	r3, [r7, #12]
20002c02:	f003 0307 	and.w	r3, r3, #7
20002c06:	61fb      	str	r3, [r7, #28]
20002c08:	69fb      	ldr	r3, [r7, #28]
20002c0a:	f1c3 0307 	rsb	r3, r3, #7
20002c0e:	2b04      	cmp	r3, #4
20002c10:	bf28      	it	cs
20002c12:	2304      	movcs	r3, #4
20002c14:	61bb      	str	r3, [r7, #24]
20002c16:	69fb      	ldr	r3, [r7, #28]
20002c18:	3304      	adds	r3, #4
20002c1a:	2b06      	cmp	r3, #6
20002c1c:	d902      	bls.n	20002c24 <NVIC_EncodePriority+0x30>
20002c1e:	69fb      	ldr	r3, [r7, #28]
20002c20:	3b03      	subs	r3, #3
20002c22:	e000      	b.n	20002c26 <NVIC_EncodePriority+0x32>
20002c24:	2300      	movs	r3, #0
20002c26:	617b      	str	r3, [r7, #20]
20002c28:	69bb      	ldr	r3, [r7, #24]
20002c2a:	2201      	movs	r2, #1
20002c2c:	fa02 f303 	lsl.w	r3, r2, r3
20002c30:	3b01      	subs	r3, #1
20002c32:	461a      	mov	r2, r3
20002c34:	68bb      	ldr	r3, [r7, #8]
20002c36:	401a      	ands	r2, r3
20002c38:	697b      	ldr	r3, [r7, #20]
20002c3a:	409a      	lsls	r2, r3
20002c3c:	697b      	ldr	r3, [r7, #20]
20002c3e:	2101      	movs	r1, #1
20002c40:	fa01 f303 	lsl.w	r3, r1, r3
20002c44:	3b01      	subs	r3, #1
20002c46:	4619      	mov	r1, r3
20002c48:	687b      	ldr	r3, [r7, #4]
20002c4a:	400b      	ands	r3, r1
20002c4c:	4313      	orrs	r3, r2
20002c4e:	4618      	mov	r0, r3
20002c50:	3724      	adds	r7, #36	; 0x24
20002c52:	46bd      	mov	sp, r7
20002c54:	f85d 7b04 	ldr.w	r7, [sp], #4
20002c58:	4770      	bx	lr
20002c5a:	bf00      	nop

20002c5c <NVIC_DecodePriority>:
20002c5c:	b480      	push	{r7}
20002c5e:	b089      	sub	sp, #36	; 0x24
20002c60:	af00      	add	r7, sp, #0
20002c62:	60f8      	str	r0, [r7, #12]
20002c64:	60b9      	str	r1, [r7, #8]
20002c66:	607a      	str	r2, [r7, #4]
20002c68:	603b      	str	r3, [r7, #0]
20002c6a:	68bb      	ldr	r3, [r7, #8]
20002c6c:	f003 0307 	and.w	r3, r3, #7
20002c70:	61fb      	str	r3, [r7, #28]
20002c72:	69fb      	ldr	r3, [r7, #28]
20002c74:	f1c3 0307 	rsb	r3, r3, #7
20002c78:	2b04      	cmp	r3, #4
20002c7a:	bf28      	it	cs
20002c7c:	2304      	movcs	r3, #4
20002c7e:	61bb      	str	r3, [r7, #24]
20002c80:	69fb      	ldr	r3, [r7, #28]
20002c82:	3304      	adds	r3, #4
20002c84:	2b06      	cmp	r3, #6
20002c86:	d902      	bls.n	20002c8e <NVIC_DecodePriority+0x32>
20002c88:	69fb      	ldr	r3, [r7, #28]
20002c8a:	3b03      	subs	r3, #3
20002c8c:	e000      	b.n	20002c90 <NVIC_DecodePriority+0x34>
20002c8e:	2300      	movs	r3, #0
20002c90:	617b      	str	r3, [r7, #20]
20002c92:	697b      	ldr	r3, [r7, #20]
20002c94:	68fa      	ldr	r2, [r7, #12]
20002c96:	fa22 f303 	lsr.w	r3, r2, r3
20002c9a:	69ba      	ldr	r2, [r7, #24]
20002c9c:	2101      	movs	r1, #1
20002c9e:	fa01 f202 	lsl.w	r2, r1, r2
20002ca2:	3a01      	subs	r2, #1
20002ca4:	401a      	ands	r2, r3
20002ca6:	687b      	ldr	r3, [r7, #4]
20002ca8:	601a      	str	r2, [r3, #0]
20002caa:	697b      	ldr	r3, [r7, #20]
20002cac:	2201      	movs	r2, #1
20002cae:	fa02 f303 	lsl.w	r3, r2, r3
20002cb2:	3b01      	subs	r3, #1
20002cb4:	461a      	mov	r2, r3
20002cb6:	68fb      	ldr	r3, [r7, #12]
20002cb8:	401a      	ands	r2, r3
20002cba:	683b      	ldr	r3, [r7, #0]
20002cbc:	601a      	str	r2, [r3, #0]
20002cbe:	3724      	adds	r7, #36	; 0x24
20002cc0:	46bd      	mov	sp, r7
20002cc2:	f85d 7b04 	ldr.w	r7, [sp], #4
20002cc6:	4770      	bx	lr

20002cc8 <NVIC_SystemReset>:
20002cc8:	b480      	push	{r7}
20002cca:	af00      	add	r7, sp, #0
20002ccc:	f3bf 8f4f 	dsb	sy
20002cd0:	4905      	ldr	r1, [pc, #20]	; (20002ce8 <NVIC_SystemReset+0x20>)
20002cd2:	4b05      	ldr	r3, [pc, #20]	; (20002ce8 <NVIC_SystemReset+0x20>)
20002cd4:	68db      	ldr	r3, [r3, #12]
20002cd6:	f403 62e0 	and.w	r2, r3, #1792	; 0x700
20002cda:	4b04      	ldr	r3, [pc, #16]	; (20002cec <NVIC_SystemReset+0x24>)
20002cdc:	4313      	orrs	r3, r2
20002cde:	60cb      	str	r3, [r1, #12]
20002ce0:	f3bf 8f4f 	dsb	sy
20002ce4:	e7fe      	b.n	20002ce4 <NVIC_SystemReset+0x1c>
20002ce6:	bf00      	nop
20002ce8:	e000ed00 	.word	0xe000ed00
20002cec:	05fa0004 	.word	0x05fa0004

20002cf0 <SysTick_Config>:
20002cf0:	b580      	push	{r7, lr}
20002cf2:	b082      	sub	sp, #8
20002cf4:	af00      	add	r7, sp, #0
20002cf6:	6078      	str	r0, [r7, #4]
20002cf8:	687b      	ldr	r3, [r7, #4]
20002cfa:	3b01      	subs	r3, #1
20002cfc:	f1b3 7f80 	cmp.w	r3, #16777216	; 0x1000000
20002d00:	d301      	bcc.n	20002d06 <SysTick_Config+0x16>
20002d02:	2301      	movs	r3, #1
20002d04:	e00f      	b.n	20002d26 <SysTick_Config+0x36>
20002d06:	4a0a      	ldr	r2, [pc, #40]	; (20002d30 <SysTick_Config+0x40>)
20002d08:	687b      	ldr	r3, [r7, #4]
20002d0a:	3b01      	subs	r3, #1
20002d0c:	6053      	str	r3, [r2, #4]
20002d0e:	f04f 30ff 	mov.w	r0, #4294967295
20002d12:	210f      	movs	r1, #15
20002d14:	f7ff ff1c 	bl	20002b50 <NVIC_SetPriority>
20002d18:	4b05      	ldr	r3, [pc, #20]	; (20002d30 <SysTick_Config+0x40>)
20002d1a:	2200      	movs	r2, #0
20002d1c:	609a      	str	r2, [r3, #8]
20002d1e:	4b04      	ldr	r3, [pc, #16]	; (20002d30 <SysTick_Config+0x40>)
20002d20:	2207      	movs	r2, #7
20002d22:	601a      	str	r2, [r3, #0]
20002d24:	2300      	movs	r3, #0
20002d26:	4618      	mov	r0, r3
20002d28:	3708      	adds	r7, #8
20002d2a:	46bd      	mov	sp, r7
20002d2c:	bd80      	pop	{r7, pc}
20002d2e:	bf00      	nop
20002d30:	e000e010 	.word	0xe000e010

20002d34 <HAL_NVIC_SetPriorityGrouping>:
20002d34:	b580      	push	{r7, lr}
20002d36:	b082      	sub	sp, #8
20002d38:	af00      	add	r7, sp, #0
20002d3a:	6078      	str	r0, [r7, #4]
20002d3c:	6878      	ldr	r0, [r7, #4]
20002d3e:	f7ff fe2f 	bl	200029a0 <NVIC_SetPriorityGrouping>
20002d42:	3708      	adds	r7, #8
20002d44:	46bd      	mov	sp, r7
20002d46:	bd80      	pop	{r7, pc}

20002d48 <HAL_NVIC_SetPriority>:
20002d48:	b580      	push	{r7, lr}
20002d4a:	b086      	sub	sp, #24
20002d4c:	af00      	add	r7, sp, #0
20002d4e:	4603      	mov	r3, r0
20002d50:	60b9      	str	r1, [r7, #8]
20002d52:	607a      	str	r2, [r7, #4]
20002d54:	73fb      	strb	r3, [r7, #15]
20002d56:	2300      	movs	r3, #0
20002d58:	617b      	str	r3, [r7, #20]
20002d5a:	f7ff fe45 	bl	200029e8 <NVIC_GetPriorityGrouping>
20002d5e:	6178      	str	r0, [r7, #20]
20002d60:	6978      	ldr	r0, [r7, #20]
20002d62:	68b9      	ldr	r1, [r7, #8]
20002d64:	687a      	ldr	r2, [r7, #4]
20002d66:	f7ff ff45 	bl	20002bf4 <NVIC_EncodePriority>
20002d6a:	4602      	mov	r2, r0
20002d6c:	f997 300f 	ldrsb.w	r3, [r7, #15]
20002d70:	4618      	mov	r0, r3
20002d72:	4611      	mov	r1, r2
20002d74:	f7ff feec 	bl	20002b50 <NVIC_SetPriority>
20002d78:	3718      	adds	r7, #24
20002d7a:	46bd      	mov	sp, r7
20002d7c:	bd80      	pop	{r7, pc}
20002d7e:	bf00      	nop

20002d80 <HAL_NVIC_EnableIRQ>:
20002d80:	b580      	push	{r7, lr}
20002d82:	b082      	sub	sp, #8
20002d84:	af00      	add	r7, sp, #0
20002d86:	4603      	mov	r3, r0
20002d88:	71fb      	strb	r3, [r7, #7]
20002d8a:	f997 3007 	ldrsb.w	r3, [r7, #7]
20002d8e:	4618      	mov	r0, r3
20002d90:	f7ff fe38 	bl	20002a04 <NVIC_EnableIRQ>
20002d94:	3708      	adds	r7, #8
20002d96:	46bd      	mov	sp, r7
20002d98:	bd80      	pop	{r7, pc}
20002d9a:	bf00      	nop

20002d9c <HAL_NVIC_DisableIRQ>:
20002d9c:	b580      	push	{r7, lr}
20002d9e:	b082      	sub	sp, #8
20002da0:	af00      	add	r7, sp, #0
20002da2:	4603      	mov	r3, r0
20002da4:	71fb      	strb	r3, [r7, #7]
20002da6:	f997 3007 	ldrsb.w	r3, [r7, #7]
20002daa:	4618      	mov	r0, r3
20002dac:	f7ff fe42 	bl	20002a34 <NVIC_DisableIRQ>
20002db0:	3708      	adds	r7, #8
20002db2:	46bd      	mov	sp, r7
20002db4:	bd80      	pop	{r7, pc}
20002db6:	bf00      	nop

20002db8 <HAL_NVIC_SystemReset>:
20002db8:	b580      	push	{r7, lr}
20002dba:	af00      	add	r7, sp, #0
20002dbc:	f7ff ff84 	bl	20002cc8 <NVIC_SystemReset>
20002dc0:	bd80      	pop	{r7, pc}
20002dc2:	bf00      	nop

20002dc4 <HAL_SYSTICK_Config>:
20002dc4:	b580      	push	{r7, lr}
20002dc6:	b082      	sub	sp, #8
20002dc8:	af00      	add	r7, sp, #0
20002dca:	6078      	str	r0, [r7, #4]
20002dcc:	6878      	ldr	r0, [r7, #4]
20002dce:	f7ff ff8f 	bl	20002cf0 <SysTick_Config>
20002dd2:	4603      	mov	r3, r0
20002dd4:	4618      	mov	r0, r3
20002dd6:	3708      	adds	r7, #8
20002dd8:	46bd      	mov	sp, r7
20002dda:	bd80      	pop	{r7, pc}

20002ddc <HAL_NVIC_GetPriorityGrouping>:
20002ddc:	b580      	push	{r7, lr}
20002dde:	af00      	add	r7, sp, #0
20002de0:	f7ff fe02 	bl	200029e8 <NVIC_GetPriorityGrouping>
20002de4:	4603      	mov	r3, r0
20002de6:	4618      	mov	r0, r3
20002de8:	bd80      	pop	{r7, pc}
20002dea:	bf00      	nop

20002dec <HAL_NVIC_GetPriority>:
20002dec:	b580      	push	{r7, lr}
20002dee:	b084      	sub	sp, #16
20002df0:	af00      	add	r7, sp, #0
20002df2:	60b9      	str	r1, [r7, #8]
20002df4:	607a      	str	r2, [r7, #4]
20002df6:	603b      	str	r3, [r7, #0]
20002df8:	4603      	mov	r3, r0
20002dfa:	73fb      	strb	r3, [r7, #15]
20002dfc:	f997 300f 	ldrsb.w	r3, [r7, #15]
20002e00:	4618      	mov	r0, r3
20002e02:	f7ff fecf 	bl	20002ba4 <NVIC_GetPriority>
20002e06:	4603      	mov	r3, r0
20002e08:	4618      	mov	r0, r3
20002e0a:	68b9      	ldr	r1, [r7, #8]
20002e0c:	687a      	ldr	r2, [r7, #4]
20002e0e:	683b      	ldr	r3, [r7, #0]
20002e10:	f7ff ff24 	bl	20002c5c <NVIC_DecodePriority>
20002e14:	3710      	adds	r7, #16
20002e16:	46bd      	mov	sp, r7
20002e18:	bd80      	pop	{r7, pc}
20002e1a:	bf00      	nop

20002e1c <HAL_NVIC_SetPendingIRQ>:
20002e1c:	b580      	push	{r7, lr}
20002e1e:	b082      	sub	sp, #8
20002e20:	af00      	add	r7, sp, #0
20002e22:	4603      	mov	r3, r0
20002e24:	71fb      	strb	r3, [r7, #7]
20002e26:	f997 3007 	ldrsb.w	r3, [r7, #7]
20002e2a:	4618      	mov	r0, r3
20002e2c:	f7ff fe3c 	bl	20002aa8 <NVIC_SetPendingIRQ>
20002e30:	3708      	adds	r7, #8
20002e32:	46bd      	mov	sp, r7
20002e34:	bd80      	pop	{r7, pc}
20002e36:	bf00      	nop

20002e38 <HAL_NVIC_GetPendingIRQ>:
20002e38:	b580      	push	{r7, lr}
20002e3a:	b082      	sub	sp, #8
20002e3c:	af00      	add	r7, sp, #0
20002e3e:	4603      	mov	r3, r0
20002e40:	71fb      	strb	r3, [r7, #7]
20002e42:	f997 3007 	ldrsb.w	r3, [r7, #7]
20002e46:	4618      	mov	r0, r3
20002e48:	f7ff fe0e 	bl	20002a68 <NVIC_GetPendingIRQ>
20002e4c:	4603      	mov	r3, r0
20002e4e:	4618      	mov	r0, r3
20002e50:	3708      	adds	r7, #8
20002e52:	46bd      	mov	sp, r7
20002e54:	bd80      	pop	{r7, pc}
20002e56:	bf00      	nop

20002e58 <HAL_NVIC_ClearPendingIRQ>:
20002e58:	b580      	push	{r7, lr}
20002e5a:	b082      	sub	sp, #8
20002e5c:	af00      	add	r7, sp, #0
20002e5e:	4603      	mov	r3, r0
20002e60:	71fb      	strb	r3, [r7, #7]
20002e62:	f997 3007 	ldrsb.w	r3, [r7, #7]
20002e66:	4618      	mov	r0, r3
20002e68:	f7ff fe38 	bl	20002adc <NVIC_ClearPendingIRQ>
20002e6c:	3708      	adds	r7, #8
20002e6e:	46bd      	mov	sp, r7
20002e70:	bd80      	pop	{r7, pc}
20002e72:	bf00      	nop

20002e74 <HAL_NVIC_GetActive>:
20002e74:	b580      	push	{r7, lr}
20002e76:	b082      	sub	sp, #8
20002e78:	af00      	add	r7, sp, #0
20002e7a:	4603      	mov	r3, r0
20002e7c:	71fb      	strb	r3, [r7, #7]
20002e7e:	f997 3007 	ldrsb.w	r3, [r7, #7]
20002e82:	4618      	mov	r0, r3
20002e84:	f7ff fe44 	bl	20002b10 <NVIC_GetActive>
20002e88:	4603      	mov	r3, r0
20002e8a:	4618      	mov	r0, r3
20002e8c:	3708      	adds	r7, #8
20002e8e:	46bd      	mov	sp, r7
20002e90:	bd80      	pop	{r7, pc}
20002e92:	bf00      	nop

20002e94 <HAL_SYSTICK_CLKSourceConfig>:
20002e94:	b480      	push	{r7}
20002e96:	b083      	sub	sp, #12
20002e98:	af00      	add	r7, sp, #0
20002e9a:	6078      	str	r0, [r7, #4]
20002e9c:	687b      	ldr	r3, [r7, #4]
20002e9e:	2b04      	cmp	r3, #4
20002ea0:	d106      	bne.n	20002eb0 <HAL_SYSTICK_CLKSourceConfig+0x1c>
20002ea2:	4a09      	ldr	r2, [pc, #36]	; (20002ec8 <HAL_SYSTICK_CLKSourceConfig+0x34>)
20002ea4:	4b08      	ldr	r3, [pc, #32]	; (20002ec8 <HAL_SYSTICK_CLKSourceConfig+0x34>)
20002ea6:	681b      	ldr	r3, [r3, #0]
20002ea8:	f043 0304 	orr.w	r3, r3, #4
20002eac:	6013      	str	r3, [r2, #0]
20002eae:	e005      	b.n	20002ebc <HAL_SYSTICK_CLKSourceConfig+0x28>
20002eb0:	4a05      	ldr	r2, [pc, #20]	; (20002ec8 <HAL_SYSTICK_CLKSourceConfig+0x34>)
20002eb2:	4b05      	ldr	r3, [pc, #20]	; (20002ec8 <HAL_SYSTICK_CLKSourceConfig+0x34>)
20002eb4:	681b      	ldr	r3, [r3, #0]
20002eb6:	f023 0304 	bic.w	r3, r3, #4
20002eba:	6013      	str	r3, [r2, #0]
20002ebc:	370c      	adds	r7, #12
20002ebe:	46bd      	mov	sp, r7
20002ec0:	f85d 7b04 	ldr.w	r7, [sp], #4
20002ec4:	4770      	bx	lr
20002ec6:	bf00      	nop
20002ec8:	e000e010 	.word	0xe000e010

20002ecc <HAL_SYSTICK_IRQHandler>:
20002ecc:	b580      	push	{r7, lr}
20002ece:	af00      	add	r7, sp, #0
20002ed0:	f000 f802 	bl	20002ed8 <HAL_SYSTICK_Callback>
20002ed4:	bd80      	pop	{r7, pc}
20002ed6:	bf00      	nop

20002ed8 <HAL_SYSTICK_Callback>:
20002ed8:	b480      	push	{r7}
20002eda:	af00      	add	r7, sp, #0
20002edc:	46bd      	mov	sp, r7
20002ede:	f85d 7b04 	ldr.w	r7, [sp], #4
20002ee2:	4770      	bx	lr

20002ee4 <HAL_Init>:
20002ee4:	b580      	push	{r7, lr}
20002ee6:	af00      	add	r7, sp, #0
20002ee8:	4a0c      	ldr	r2, [pc, #48]	; (20002f1c <HAL_Init+0x38>)
20002eea:	4b0c      	ldr	r3, [pc, #48]	; (20002f1c <HAL_Init+0x38>)
20002eec:	681b      	ldr	r3, [r3, #0]
20002eee:	f443 7300 	orr.w	r3, r3, #512	; 0x200
20002ef2:	6013      	str	r3, [r2, #0]
20002ef4:	4a09      	ldr	r2, [pc, #36]	; (20002f1c <HAL_Init+0x38>)
20002ef6:	4b09      	ldr	r3, [pc, #36]	; (20002f1c <HAL_Init+0x38>)
20002ef8:	681b      	ldr	r3, [r3, #0]
20002efa:	f443 6380 	orr.w	r3, r3, #1024	; 0x400
20002efe:	6013      	str	r3, [r2, #0]
20002f00:	4a06      	ldr	r2, [pc, #24]	; (20002f1c <HAL_Init+0x38>)
20002f02:	4b06      	ldr	r3, [pc, #24]	; (20002f1c <HAL_Init+0x38>)
20002f04:	681b      	ldr	r3, [r3, #0]
20002f06:	f443 7380 	orr.w	r3, r3, #256	; 0x100
20002f0a:	6013      	str	r3, [r2, #0]
20002f0c:	200f      	movs	r0, #15
20002f0e:	f000 f83f 	bl	20002f90 <HAL_InitTick>
20002f12:	f000 f831 	bl	20002f78 <HAL_MspInit>
20002f16:	2300      	movs	r3, #0
20002f18:	4618      	mov	r0, r3
20002f1a:	bd80      	pop	{r7, pc}
20002f1c:	40023c00 	.word	0x40023c00

20002f20 <HAL_DeInit>:
20002f20:	b580      	push	{r7, lr}
20002f22:	af00      	add	r7, sp, #0
20002f24:	4b13      	ldr	r3, [pc, #76]	; (20002f74 <HAL_DeInit+0x54>)
20002f26:	f04f 32ff 	mov.w	r2, #4294967295
20002f2a:	621a      	str	r2, [r3, #32]
20002f2c:	4b11      	ldr	r3, [pc, #68]	; (20002f74 <HAL_DeInit+0x54>)
20002f2e:	2200      	movs	r2, #0
20002f30:	621a      	str	r2, [r3, #32]
20002f32:	4b10      	ldr	r3, [pc, #64]	; (20002f74 <HAL_DeInit+0x54>)
20002f34:	f04f 32ff 	mov.w	r2, #4294967295
20002f38:	625a      	str	r2, [r3, #36]	; 0x24
20002f3a:	4b0e      	ldr	r3, [pc, #56]	; (20002f74 <HAL_DeInit+0x54>)
20002f3c:	2200      	movs	r2, #0
20002f3e:	625a      	str	r2, [r3, #36]	; 0x24
20002f40:	4b0c      	ldr	r3, [pc, #48]	; (20002f74 <HAL_DeInit+0x54>)
20002f42:	f04f 32ff 	mov.w	r2, #4294967295
20002f46:	611a      	str	r2, [r3, #16]
20002f48:	4b0a      	ldr	r3, [pc, #40]	; (20002f74 <HAL_DeInit+0x54>)
20002f4a:	2200      	movs	r2, #0
20002f4c:	611a      	str	r2, [r3, #16]
20002f4e:	4b09      	ldr	r3, [pc, #36]	; (20002f74 <HAL_DeInit+0x54>)
20002f50:	f04f 32ff 	mov.w	r2, #4294967295
20002f54:	615a      	str	r2, [r3, #20]
20002f56:	4b07      	ldr	r3, [pc, #28]	; (20002f74 <HAL_DeInit+0x54>)
20002f58:	2200      	movs	r2, #0
20002f5a:	615a      	str	r2, [r3, #20]
20002f5c:	4b05      	ldr	r3, [pc, #20]	; (20002f74 <HAL_DeInit+0x54>)
20002f5e:	f04f 32ff 	mov.w	r2, #4294967295
20002f62:	619a      	str	r2, [r3, #24]
20002f64:	4b03      	ldr	r3, [pc, #12]	; (20002f74 <HAL_DeInit+0x54>)
20002f66:	2200      	movs	r2, #0
20002f68:	619a      	str	r2, [r3, #24]
20002f6a:	f000 f80b 	bl	20002f84 <HAL_MspDeInit>
20002f6e:	2300      	movs	r3, #0
20002f70:	4618      	mov	r0, r3
20002f72:	bd80      	pop	{r7, pc}
20002f74:	40023800 	.word	0x40023800

20002f78 <HAL_MspInit>:
20002f78:	b480      	push	{r7}
20002f7a:	af00      	add	r7, sp, #0
20002f7c:	46bd      	mov	sp, r7
20002f7e:	f85d 7b04 	ldr.w	r7, [sp], #4
20002f82:	4770      	bx	lr

20002f84 <HAL_MspDeInit>:
20002f84:	b480      	push	{r7}
20002f86:	af00      	add	r7, sp, #0
20002f88:	46bd      	mov	sp, r7
20002f8a:	f85d 7b04 	ldr.w	r7, [sp], #4
20002f8e:	4770      	bx	lr

20002f90 <HAL_InitTick>:
20002f90:	b580      	push	{r7, lr}
20002f92:	b082      	sub	sp, #8
20002f94:	af00      	add	r7, sp, #0
20002f96:	6078      	str	r0, [r7, #4]
20002f98:	f7ff f95a 	bl	20002250 <HAL_RCC_GetHCLKFreq>
20002f9c:	4602      	mov	r2, r0
20002f9e:	4b09      	ldr	r3, [pc, #36]	; (20002fc4 <HAL_InitTick+0x34>)
20002fa0:	fba3 2302 	umull	r2, r3, r3, r2
20002fa4:	099b      	lsrs	r3, r3, #6
20002fa6:	4618      	mov	r0, r3
20002fa8:	f7ff ff0c 	bl	20002dc4 <HAL_SYSTICK_Config>
20002fac:	f04f 30ff 	mov.w	r0, #4294967295
20002fb0:	6879      	ldr	r1, [r7, #4]
20002fb2:	2200      	movs	r2, #0
20002fb4:	f7ff fec8 	bl	20002d48 <HAL_NVIC_SetPriority>
20002fb8:	2300      	movs	r3, #0
20002fba:	4618      	mov	r0, r3
20002fbc:	3708      	adds	r7, #8
20002fbe:	46bd      	mov	sp, r7
20002fc0:	bd80      	pop	{r7, pc}
20002fc2:	bf00      	nop
20002fc4:	10624dd3 	.word	0x10624dd3

20002fc8 <HAL_IncTick>:
20002fc8:	b480      	push	{r7}
20002fca:	af00      	add	r7, sp, #0
20002fcc:	4b04      	ldr	r3, [pc, #16]	; (20002fe0 <HAL_IncTick+0x18>)
20002fce:	681b      	ldr	r3, [r3, #0]
20002fd0:	3301      	adds	r3, #1
20002fd2:	4a03      	ldr	r2, [pc, #12]	; (20002fe0 <HAL_IncTick+0x18>)
20002fd4:	6013      	str	r3, [r2, #0]
20002fd6:	46bd      	mov	sp, r7
20002fd8:	f85d 7b04 	ldr.w	r7, [sp], #4
20002fdc:	4770      	bx	lr
20002fde:	bf00      	nop
20002fe0:	2000446c 	.word	0x2000446c

20002fe4 <HAL_GetTick>:
20002fe4:	b480      	push	{r7}
20002fe6:	af00      	add	r7, sp, #0
20002fe8:	4b03      	ldr	r3, [pc, #12]	; (20002ff8 <HAL_GetTick+0x14>)
20002fea:	681b      	ldr	r3, [r3, #0]
20002fec:	4618      	mov	r0, r3
20002fee:	46bd      	mov	sp, r7
20002ff0:	f85d 7b04 	ldr.w	r7, [sp], #4
20002ff4:	4770      	bx	lr
20002ff6:	bf00      	nop
20002ff8:	2000446c 	.word	0x2000446c

20002ffc <HAL_Delay>:
20002ffc:	b580      	push	{r7, lr}
20002ffe:	b084      	sub	sp, #16
20003000:	af00      	add	r7, sp, #0
20003002:	6078      	str	r0, [r7, #4]
20003004:	2300      	movs	r3, #0
20003006:	60fb      	str	r3, [r7, #12]
20003008:	f7ff ffec 	bl	20002fe4 <HAL_GetTick>
2000300c:	60f8      	str	r0, [r7, #12]
2000300e:	bf00      	nop
20003010:	f7ff ffe8 	bl	20002fe4 <HAL_GetTick>
20003014:	4602      	mov	r2, r0
20003016:	68fb      	ldr	r3, [r7, #12]
20003018:	1ad2      	subs	r2, r2, r3
2000301a:	687b      	ldr	r3, [r7, #4]
2000301c:	429a      	cmp	r2, r3
2000301e:	d3f7      	bcc.n	20003010 <HAL_Delay+0x14>
20003020:	3710      	adds	r7, #16
20003022:	46bd      	mov	sp, r7
20003024:	bd80      	pop	{r7, pc}
20003026:	bf00      	nop

20003028 <HAL_SuspendTick>:
20003028:	b480      	push	{r7}
2000302a:	af00      	add	r7, sp, #0
2000302c:	4a04      	ldr	r2, [pc, #16]	; (20003040 <HAL_SuspendTick+0x18>)
2000302e:	4b04      	ldr	r3, [pc, #16]	; (20003040 <HAL_SuspendTick+0x18>)
20003030:	681b      	ldr	r3, [r3, #0]
20003032:	f023 0302 	bic.w	r3, r3, #2
20003036:	6013      	str	r3, [r2, #0]
20003038:	46bd      	mov	sp, r7
2000303a:	f85d 7b04 	ldr.w	r7, [sp], #4
2000303e:	4770      	bx	lr
20003040:	e000e010 	.word	0xe000e010

20003044 <HAL_ResumeTick>:
20003044:	b480      	push	{r7}
20003046:	af00      	add	r7, sp, #0
20003048:	4a04      	ldr	r2, [pc, #16]	; (2000305c <HAL_ResumeTick+0x18>)
2000304a:	4b04      	ldr	r3, [pc, #16]	; (2000305c <HAL_ResumeTick+0x18>)
2000304c:	681b      	ldr	r3, [r3, #0]
2000304e:	f043 0302 	orr.w	r3, r3, #2
20003052:	6013      	str	r3, [r2, #0]
20003054:	46bd      	mov	sp, r7
20003056:	f85d 7b04 	ldr.w	r7, [sp], #4
2000305a:	4770      	bx	lr
2000305c:	e000e010 	.word	0xe000e010

20003060 <HAL_GetHalVersion>:
20003060:	b480      	push	{r7}
20003062:	af00      	add	r7, sp, #0
20003064:	4b02      	ldr	r3, [pc, #8]	; (20003070 <HAL_GetHalVersion+0x10>)
20003066:	4618      	mov	r0, r3
20003068:	46bd      	mov	sp, r7
2000306a:	f85d 7b04 	ldr.w	r7, [sp], #4
2000306e:	4770      	bx	lr
20003070:	01030000 	.word	0x01030000

20003074 <HAL_GetREVID>:
20003074:	b480      	push	{r7}
20003076:	af00      	add	r7, sp, #0
20003078:	4b03      	ldr	r3, [pc, #12]	; (20003088 <HAL_GetREVID+0x14>)
2000307a:	681b      	ldr	r3, [r3, #0]
2000307c:	0c1b      	lsrs	r3, r3, #16
2000307e:	4618      	mov	r0, r3
20003080:	46bd      	mov	sp, r7
20003082:	f85d 7b04 	ldr.w	r7, [sp], #4
20003086:	4770      	bx	lr
20003088:	e0042000 	.word	0xe0042000

2000308c <HAL_GetDEVID>:
2000308c:	b480      	push	{r7}
2000308e:	af00      	add	r7, sp, #0
20003090:	4b04      	ldr	r3, [pc, #16]	; (200030a4 <HAL_GetDEVID+0x18>)
20003092:	681b      	ldr	r3, [r3, #0]
20003094:	f3c3 030b 	ubfx	r3, r3, #0, #12
20003098:	4618      	mov	r0, r3
2000309a:	46bd      	mov	sp, r7
2000309c:	f85d 7b04 	ldr.w	r7, [sp], #4
200030a0:	4770      	bx	lr
200030a2:	bf00      	nop
200030a4:	e0042000 	.word	0xe0042000

200030a8 <HAL_DBGMCU_EnableDBGSleepMode>:
200030a8:	b480      	push	{r7}
200030aa:	af00      	add	r7, sp, #0
200030ac:	4a04      	ldr	r2, [pc, #16]	; (200030c0 <HAL_DBGMCU_EnableDBGSleepMode+0x18>)
200030ae:	4b04      	ldr	r3, [pc, #16]	; (200030c0 <HAL_DBGMCU_EnableDBGSleepMode+0x18>)
200030b0:	685b      	ldr	r3, [r3, #4]
200030b2:	f043 0301 	orr.w	r3, r3, #1
200030b6:	6053      	str	r3, [r2, #4]
200030b8:	46bd      	mov	sp, r7
200030ba:	f85d 7b04 	ldr.w	r7, [sp], #4
200030be:	4770      	bx	lr
200030c0:	e0042000 	.word	0xe0042000

200030c4 <HAL_DBGMCU_DisableDBGSleepMode>:
200030c4:	b480      	push	{r7}
200030c6:	af00      	add	r7, sp, #0
200030c8:	4a04      	ldr	r2, [pc, #16]	; (200030dc <HAL_DBGMCU_DisableDBGSleepMode+0x18>)
200030ca:	4b04      	ldr	r3, [pc, #16]	; (200030dc <HAL_DBGMCU_DisableDBGSleepMode+0x18>)
200030cc:	685b      	ldr	r3, [r3, #4]
200030ce:	f023 0301 	bic.w	r3, r3, #1
200030d2:	6053      	str	r3, [r2, #4]
200030d4:	46bd      	mov	sp, r7
200030d6:	f85d 7b04 	ldr.w	r7, [sp], #4
200030da:	4770      	bx	lr
200030dc:	e0042000 	.word	0xe0042000

200030e0 <HAL_DBGMCU_EnableDBGStopMode>:
200030e0:	b480      	push	{r7}
200030e2:	af00      	add	r7, sp, #0
200030e4:	4a04      	ldr	r2, [pc, #16]	; (200030f8 <HAL_DBGMCU_EnableDBGStopMode+0x18>)
200030e6:	4b04      	ldr	r3, [pc, #16]	; (200030f8 <HAL_DBGMCU_EnableDBGStopMode+0x18>)
200030e8:	685b      	ldr	r3, [r3, #4]
200030ea:	f043 0302 	orr.w	r3, r3, #2
200030ee:	6053      	str	r3, [r2, #4]
200030f0:	46bd      	mov	sp, r7
200030f2:	f85d 7b04 	ldr.w	r7, [sp], #4
200030f6:	4770      	bx	lr
200030f8:	e0042000 	.word	0xe0042000

200030fc <HAL_DBGMCU_DisableDBGStopMode>:
200030fc:	b480      	push	{r7}
200030fe:	af00      	add	r7, sp, #0
20003100:	4a04      	ldr	r2, [pc, #16]	; (20003114 <HAL_DBGMCU_DisableDBGStopMode+0x18>)
20003102:	4b04      	ldr	r3, [pc, #16]	; (20003114 <HAL_DBGMCU_DisableDBGStopMode+0x18>)
20003104:	685b      	ldr	r3, [r3, #4]
20003106:	f023 0302 	bic.w	r3, r3, #2
2000310a:	6053      	str	r3, [r2, #4]
2000310c:	46bd      	mov	sp, r7
2000310e:	f85d 7b04 	ldr.w	r7, [sp], #4
20003112:	4770      	bx	lr
20003114:	e0042000 	.word	0xe0042000

20003118 <HAL_DBGMCU_EnableDBGStandbyMode>:
20003118:	b480      	push	{r7}
2000311a:	af00      	add	r7, sp, #0
2000311c:	4a04      	ldr	r2, [pc, #16]	; (20003130 <HAL_DBGMCU_EnableDBGStandbyMode+0x18>)
2000311e:	4b04      	ldr	r3, [pc, #16]	; (20003130 <HAL_DBGMCU_EnableDBGStandbyMode+0x18>)
20003120:	685b      	ldr	r3, [r3, #4]
20003122:	f043 0304 	orr.w	r3, r3, #4
20003126:	6053      	str	r3, [r2, #4]
20003128:	46bd      	mov	sp, r7
2000312a:	f85d 7b04 	ldr.w	r7, [sp], #4
2000312e:	4770      	bx	lr
20003130:	e0042000 	.word	0xe0042000

20003134 <HAL_DBGMCU_DisableDBGStandbyMode>:
20003134:	b480      	push	{r7}
20003136:	af00      	add	r7, sp, #0
20003138:	4a04      	ldr	r2, [pc, #16]	; (2000314c <HAL_DBGMCU_DisableDBGStandbyMode+0x18>)
2000313a:	4b04      	ldr	r3, [pc, #16]	; (2000314c <HAL_DBGMCU_DisableDBGStandbyMode+0x18>)
2000313c:	685b      	ldr	r3, [r3, #4]
2000313e:	f023 0304 	bic.w	r3, r3, #4
20003142:	6053      	str	r3, [r2, #4]
20003144:	46bd      	mov	sp, r7
20003146:	f85d 7b04 	ldr.w	r7, [sp], #4
2000314a:	4770      	bx	lr
2000314c:	e0042000 	.word	0xe0042000

20003150 <HAL_EnableCompensationCell>:
20003150:	b480      	push	{r7}
20003152:	b085      	sub	sp, #20
20003154:	af00      	add	r7, sp, #0
20003156:	2301      	movs	r3, #1
20003158:	60fb      	str	r3, [r7, #12]
2000315a:	68fb      	ldr	r3, [r7, #12]
2000315c:	fa93 f3a3 	rbit	r3, r3
20003160:	60bb      	str	r3, [r7, #8]
20003162:	68bb      	ldr	r3, [r7, #8]
20003164:	607b      	str	r3, [r7, #4]
20003166:	687b      	ldr	r3, [r7, #4]
20003168:	fab3 f383 	clz	r3, r3
2000316c:	603b      	str	r3, [r7, #0]
2000316e:	683b      	ldr	r3, [r7, #0]
20003170:	b2db      	uxtb	r3, r3
20003172:	009b      	lsls	r3, r3, #2
20003174:	461a      	mov	r2, r3
20003176:	4b05      	ldr	r3, [pc, #20]	; (2000318c <HAL_EnableCompensationCell+0x3c>)
20003178:	4413      	add	r3, r2
2000317a:	461a      	mov	r2, r3
2000317c:	2301      	movs	r3, #1
2000317e:	6013      	str	r3, [r2, #0]
20003180:	3714      	adds	r7, #20
20003182:	46bd      	mov	sp, r7
20003184:	f85d 7b04 	ldr.w	r7, [sp], #4
20003188:	4770      	bx	lr
2000318a:	bf00      	nop
2000318c:	42270400 	.word	0x42270400

20003190 <HAL_DisableCompensationCell>:
20003190:	b480      	push	{r7}
20003192:	b085      	sub	sp, #20
20003194:	af00      	add	r7, sp, #0
20003196:	2301      	movs	r3, #1
20003198:	60fb      	str	r3, [r7, #12]
2000319a:	68fb      	ldr	r3, [r7, #12]
2000319c:	fa93 f3a3 	rbit	r3, r3
200031a0:	60bb      	str	r3, [r7, #8]
200031a2:	68bb      	ldr	r3, [r7, #8]
200031a4:	607b      	str	r3, [r7, #4]
200031a6:	687b      	ldr	r3, [r7, #4]
200031a8:	fab3 f383 	clz	r3, r3
200031ac:	603b      	str	r3, [r7, #0]
200031ae:	683b      	ldr	r3, [r7, #0]
200031b0:	b2db      	uxtb	r3, r3
200031b2:	009b      	lsls	r3, r3, #2
200031b4:	461a      	mov	r2, r3
200031b6:	4b05      	ldr	r3, [pc, #20]	; (200031cc <HAL_DisableCompensationCell+0x3c>)
200031b8:	4413      	add	r3, r2
200031ba:	461a      	mov	r2, r3
200031bc:	2300      	movs	r3, #0
200031be:	6013      	str	r3, [r2, #0]
200031c0:	3714      	adds	r7, #20
200031c2:	46bd      	mov	sp, r7
200031c4:	f85d 7b04 	ldr.w	r7, [sp], #4
200031c8:	4770      	bx	lr
200031ca:	bf00      	nop
200031cc:	42270400 	.word	0x42270400

200031d0 <HAL_EnableMemorySwappingBank>:
200031d0:	b480      	push	{r7}
200031d2:	b085      	sub	sp, #20
200031d4:	af00      	add	r7, sp, #0
200031d6:	f44f 7380 	mov.w	r3, #256	; 0x100
200031da:	60fb      	str	r3, [r7, #12]
200031dc:	68fb      	ldr	r3, [r7, #12]
200031de:	fa93 f3a3 	rbit	r3, r3
200031e2:	60bb      	str	r3, [r7, #8]
200031e4:	68bb      	ldr	r3, [r7, #8]
200031e6:	607b      	str	r3, [r7, #4]
200031e8:	687b      	ldr	r3, [r7, #4]
200031ea:	fab3 f383 	clz	r3, r3
200031ee:	603b      	str	r3, [r7, #0]
200031f0:	683b      	ldr	r3, [r7, #0]
200031f2:	b2db      	uxtb	r3, r3
200031f4:	009b      	lsls	r3, r3, #2
200031f6:	f103 4384 	add.w	r3, r3, #1107296256	; 0x42000000
200031fa:	f503 131c 	add.w	r3, r3, #2555904	; 0x270000
200031fe:	461a      	mov	r2, r3
20003200:	2301      	movs	r3, #1
20003202:	6013      	str	r3, [r2, #0]
20003204:	3714      	adds	r7, #20
20003206:	46bd      	mov	sp, r7
20003208:	f85d 7b04 	ldr.w	r7, [sp], #4
2000320c:	4770      	bx	lr
2000320e:	bf00      	nop

20003210 <HAL_DisableMemorySwappingBank>:
20003210:	b480      	push	{r7}
20003212:	b085      	sub	sp, #20
20003214:	af00      	add	r7, sp, #0
20003216:	f44f 7380 	mov.w	r3, #256	; 0x100
2000321a:	60fb      	str	r3, [r7, #12]
2000321c:	68fb      	ldr	r3, [r7, #12]
2000321e:	fa93 f3a3 	rbit	r3, r3
20003222:	60bb      	str	r3, [r7, #8]
20003224:	68bb      	ldr	r3, [r7, #8]
20003226:	607b      	str	r3, [r7, #4]
20003228:	687b      	ldr	r3, [r7, #4]
2000322a:	fab3 f383 	clz	r3, r3
2000322e:	603b      	str	r3, [r7, #0]
20003230:	683b      	ldr	r3, [r7, #0]
20003232:	b2db      	uxtb	r3, r3
20003234:	009b      	lsls	r3, r3, #2
20003236:	f103 4384 	add.w	r3, r3, #1107296256	; 0x42000000
2000323a:	f503 131c 	add.w	r3, r3, #2555904	; 0x270000
2000323e:	461a      	mov	r2, r3
20003240:	2300      	movs	r3, #0
20003242:	6013      	str	r3, [r2, #0]
20003244:	3714      	adds	r7, #20
20003246:	46bd      	mov	sp, r7
20003248:	f85d 7b04 	ldr.w	r7, [sp], #4
2000324c:	4770      	bx	lr
2000324e:	bf00      	nop

20003250 <NMI_Handler>:
20003250:	b480      	push	{r7}
20003252:	af00      	add	r7, sp, #0
20003254:	46bd      	mov	sp, r7
20003256:	f85d 7b04 	ldr.w	r7, [sp], #4
2000325a:	4770      	bx	lr

2000325c <HardFault_Handler>:
2000325c:	b480      	push	{r7}
2000325e:	af00      	add	r7, sp, #0
20003260:	e7fe      	b.n	20003260 <HardFault_Handler+0x4>
20003262:	bf00      	nop

20003264 <MemManage_Handler>:
20003264:	b480      	push	{r7}
20003266:	af00      	add	r7, sp, #0
20003268:	e7fe      	b.n	20003268 <MemManage_Handler+0x4>
2000326a:	bf00      	nop

2000326c <BusFault_Handler>:
2000326c:	b480      	push	{r7}
2000326e:	af00      	add	r7, sp, #0
20003270:	e7fe      	b.n	20003270 <BusFault_Handler+0x4>
20003272:	bf00      	nop

20003274 <UsageFault_Handler>:
20003274:	b480      	push	{r7}
20003276:	af00      	add	r7, sp, #0
20003278:	e7fe      	b.n	20003278 <UsageFault_Handler+0x4>
2000327a:	bf00      	nop

2000327c <SVC_Handler>:
2000327c:	f01e 0f04 	tst.w	lr, #4
20003280:	bf0c      	ite	eq
20003282:	f3ef 8008 	mrseq	r0, MSP
20003286:	f3ef 8009 	mrsne	r0, PSP
2000328a:	f000 b889 	b.w	200033a0 <svcServiceHandler>
2000328e:	bf00      	nop

20003290 <DebugMon_Handler>:
20003290:	b480      	push	{r7}
20003292:	af00      	add	r7, sp, #0
20003294:	46bd      	mov	sp, r7
20003296:	f85d 7b04 	ldr.w	r7, [sp], #4
2000329a:	4770      	bx	lr

2000329c <PendSV_Handler>:
2000329c:	b480      	push	{r7}
2000329e:	af00      	add	r7, sp, #0
200032a0:	46bd      	mov	sp, r7
200032a2:	f85d 7b04 	ldr.w	r7, [sp], #4
200032a6:	4770      	bx	lr

200032a8 <SysTick_Handler>:
200032a8:	b580      	push	{r7, lr}
200032aa:	af00      	add	r7, sp, #0
200032ac:	f7ff fe8c 	bl	20002fc8 <HAL_IncTick>
200032b0:	bd80      	pop	{r7, pc}
200032b2:	bf00      	nop

200032b4 <stubInit>:
200032b4:	b480      	push	{r7}
200032b6:	af00      	add	r7, sp, #0
200032b8:	4b0a      	ldr	r3, [pc, #40]	; (200032e4 <stubInit+0x30>)
200032ba:	2200      	movs	r2, #0
200032bc:	601a      	str	r2, [r3, #0]
200032be:	4b09      	ldr	r3, [pc, #36]	; (200032e4 <stubInit+0x30>)
200032c0:	2200      	movs	r2, #0
200032c2:	605a      	str	r2, [r3, #4]
200032c4:	4b07      	ldr	r3, [pc, #28]	; (200032e4 <stubInit+0x30>)
200032c6:	2200      	movs	r2, #0
200032c8:	609a      	str	r2, [r3, #8]
200032ca:	4b06      	ldr	r3, [pc, #24]	; (200032e4 <stubInit+0x30>)
200032cc:	2200      	movs	r2, #0
200032ce:	60da      	str	r2, [r3, #12]
200032d0:	4b04      	ldr	r3, [pc, #16]	; (200032e4 <stubInit+0x30>)
200032d2:	2200      	movs	r2, #0
200032d4:	611a      	str	r2, [r3, #16]
200032d6:	4b03      	ldr	r3, [pc, #12]	; (200032e4 <stubInit+0x30>)
200032d8:	2200      	movs	r2, #0
200032da:	615a      	str	r2, [r3, #20]
200032dc:	46bd      	mov	sp, r7
200032de:	f85d 7b04 	ldr.w	r7, [sp], #4
200032e2:	4770      	bx	lr
200032e4:	20004e00 	.word	0x20004e00

200032e8 <swdStub>:
200032e8:	b580      	push	{r7, lr}
200032ea:	b082      	sub	sp, #8
200032ec:	af00      	add	r7, sp, #0
200032ee:	6078      	str	r0, [r7, #4]
200032f0:	687b      	ldr	r3, [r7, #4]
200032f2:	2b02      	cmp	r3, #2
200032f4:	d006      	beq.n	20003304 <swdStub+0x1c>
200032f6:	2b03      	cmp	r3, #3
200032f8:	d007      	beq.n	2000330a <swdStub+0x22>
200032fa:	2b01      	cmp	r3, #1
200032fc:	d108      	bne.n	20003310 <swdStub+0x28>
200032fe:	f000 f80b 	bl	20003318 <stubCopy>
20003302:	e005      	b.n	20003310 <swdStub+0x28>
20003304:	f000 f822 	bl	2000334c <stubErase>
20003308:	e002      	b.n	20003310 <swdStub+0x28>
2000330a:	f000 f835 	bl	20003378 <stubMassErase>
2000330e:	bf00      	nop
20003310:	3708      	adds	r7, #8
20003312:	46bd      	mov	sp, r7
20003314:	bd80      	pop	{r7, pc}
20003316:	bf00      	nop

20003318 <stubCopy>:
20003318:	b580      	push	{r7, lr}
2000331a:	af00      	add	r7, sp, #0
2000331c:	4b0a      	ldr	r3, [pc, #40]	; (20003348 <stubCopy+0x30>)
2000331e:	2201      	movs	r2, #1
20003320:	605a      	str	r2, [r3, #4]
20003322:	4b09      	ldr	r3, [pc, #36]	; (20003348 <stubCopy+0x30>)
20003324:	6919      	ldr	r1, [r3, #16]
20003326:	4b08      	ldr	r3, [pc, #32]	; (20003348 <stubCopy+0x30>)
20003328:	68da      	ldr	r2, [r3, #12]
2000332a:	4b07      	ldr	r3, [pc, #28]	; (20003348 <stubCopy+0x30>)
2000332c:	689b      	ldr	r3, [r3, #8]
2000332e:	4608      	mov	r0, r1
20003330:	4611      	mov	r1, r2
20003332:	461a      	mov	r2, r3
20003334:	f000 fa88 	bl	20003848 <flashCopyFromSramToFlash>
20003338:	4b03      	ldr	r3, [pc, #12]	; (20003348 <stubCopy+0x30>)
2000333a:	2200      	movs	r2, #0
2000333c:	601a      	str	r2, [r3, #0]
2000333e:	4b02      	ldr	r3, [pc, #8]	; (20003348 <stubCopy+0x30>)
20003340:	2200      	movs	r2, #0
20003342:	605a      	str	r2, [r3, #4]
20003344:	bd80      	pop	{r7, pc}
20003346:	bf00      	nop
20003348:	20004e00 	.word	0x20004e00

2000334c <stubErase>:
2000334c:	b580      	push	{r7, lr}
2000334e:	af00      	add	r7, sp, #0
20003350:	4b08      	ldr	r3, [pc, #32]	; (20003374 <stubErase+0x28>)
20003352:	2201      	movs	r2, #1
20003354:	605a      	str	r2, [r3, #4]
20003356:	4b07      	ldr	r3, [pc, #28]	; (20003374 <stubErase+0x28>)
20003358:	68da      	ldr	r2, [r3, #12]
2000335a:	4b06      	ldr	r3, [pc, #24]	; (20003374 <stubErase+0x28>)
2000335c:	689b      	ldr	r3, [r3, #8]
2000335e:	4610      	mov	r0, r2
20003360:	4619      	mov	r1, r3
20003362:	f000 f8a9 	bl	200034b8 <flashErase>
20003366:	4b03      	ldr	r3, [pc, #12]	; (20003374 <stubErase+0x28>)
20003368:	2200      	movs	r2, #0
2000336a:	601a      	str	r2, [r3, #0]
2000336c:	4b01      	ldr	r3, [pc, #4]	; (20003374 <stubErase+0x28>)
2000336e:	2200      	movs	r2, #0
20003370:	605a      	str	r2, [r3, #4]
20003372:	bd80      	pop	{r7, pc}
20003374:	20004e00 	.word	0x20004e00

20003378 <stubMassErase>:
20003378:	b580      	push	{r7, lr}
2000337a:	af00      	add	r7, sp, #0
2000337c:	4b07      	ldr	r3, [pc, #28]	; (2000339c <stubMassErase+0x24>)
2000337e:	2201      	movs	r2, #1
20003380:	605a      	str	r2, [r3, #4]
20003382:	4b06      	ldr	r3, [pc, #24]	; (2000339c <stubMassErase+0x24>)
20003384:	695b      	ldr	r3, [r3, #20]
20003386:	4618      	mov	r0, r3
20003388:	f000 f86e 	bl	20003468 <flashMassErase>
2000338c:	4b03      	ldr	r3, [pc, #12]	; (2000339c <stubMassErase+0x24>)
2000338e:	2200      	movs	r2, #0
20003390:	601a      	str	r2, [r3, #0]
20003392:	4b02      	ldr	r3, [pc, #8]	; (2000339c <stubMassErase+0x24>)
20003394:	2200      	movs	r2, #0
20003396:	605a      	str	r2, [r3, #4]
20003398:	bd80      	pop	{r7, pc}
2000339a:	bf00      	nop
2000339c:	20004e00 	.word	0x20004e00

200033a0 <svcServiceHandler>:
200033a0:	b580      	push	{r7, lr}
200033a2:	b082      	sub	sp, #8
200033a4:	af00      	add	r7, sp, #0
200033a6:	6078      	str	r0, [r7, #4]
200033a8:	bf00      	nop
200033aa:	687b      	ldr	r3, [r7, #4]
200033ac:	681b      	ldr	r3, [r3, #0]
200033ae:	2b00      	cmp	r3, #0
200033b0:	d0fb      	beq.n	200033aa <svcServiceHandler+0xa>
200033b2:	687b      	ldr	r3, [r7, #4]
200033b4:	681b      	ldr	r3, [r3, #0]
200033b6:	2b01      	cmp	r3, #1
200033b8:	d104      	bne.n	200033c4 <svcServiceHandler+0x24>
200033ba:	687b      	ldr	r3, [r7, #4]
200033bc:	3304      	adds	r3, #4
200033be:	4a1a      	ldr	r2, [pc, #104]	; (20003428 <svcServiceHandler+0x88>)
200033c0:	601a      	str	r2, [r3, #0]
200033c2:	e02b      	b.n	2000341c <svcServiceHandler+0x7c>
200033c4:	687b      	ldr	r3, [r7, #4]
200033c6:	681b      	ldr	r3, [r3, #0]
200033c8:	2b02      	cmp	r3, #2
200033ca:	d10e      	bne.n	200033ea <svcServiceHandler+0x4a>
200033cc:	687b      	ldr	r3, [r7, #4]
200033ce:	3304      	adds	r3, #4
200033d0:	6819      	ldr	r1, [r3, #0]
200033d2:	687b      	ldr	r3, [r7, #4]
200033d4:	3308      	adds	r3, #8
200033d6:	681a      	ldr	r2, [r3, #0]
200033d8:	687b      	ldr	r3, [r7, #4]
200033da:	330c      	adds	r3, #12
200033dc:	681b      	ldr	r3, [r3, #0]
200033de:	4608      	mov	r0, r1
200033e0:	4611      	mov	r1, r2
200033e2:	461a      	mov	r2, r3
200033e4:	f000 fa30 	bl	20003848 <flashCopyFromSramToFlash>
200033e8:	e018      	b.n	2000341c <svcServiceHandler+0x7c>
200033ea:	687b      	ldr	r3, [r7, #4]
200033ec:	681b      	ldr	r3, [r3, #0]
200033ee:	2b03      	cmp	r3, #3
200033f0:	d10a      	bne.n	20003408 <svcServiceHandler+0x68>
200033f2:	687b      	ldr	r3, [r7, #4]
200033f4:	3304      	adds	r3, #4
200033f6:	681a      	ldr	r2, [r3, #0]
200033f8:	687b      	ldr	r3, [r7, #4]
200033fa:	3308      	adds	r3, #8
200033fc:	681b      	ldr	r3, [r3, #0]
200033fe:	4610      	mov	r0, r2
20003400:	4619      	mov	r1, r3
20003402:	f000 f859 	bl	200034b8 <flashErase>
20003406:	e009      	b.n	2000341c <svcServiceHandler+0x7c>
20003408:	687b      	ldr	r3, [r7, #4]
2000340a:	681b      	ldr	r3, [r3, #0]
2000340c:	2b04      	cmp	r3, #4
2000340e:	d105      	bne.n	2000341c <svcServiceHandler+0x7c>
20003410:	687b      	ldr	r3, [r7, #4]
20003412:	3304      	adds	r3, #4
20003414:	681b      	ldr	r3, [r3, #0]
20003416:	4618      	mov	r0, r3
20003418:	f000 f826 	bl	20003468 <flashMassErase>
2000341c:	687b      	ldr	r3, [r7, #4]
2000341e:	2200      	movs	r2, #0
20003420:	601a      	str	r2, [r3, #0]
20003422:	3708      	adds	r7, #8
20003424:	46bd      	mov	sp, r7
20003426:	bd80      	pop	{r7, pc}
20003428:	20012800 	.word	0x20012800

2000342c <svcServiceCall>:
2000342c:	b480      	push	{r7}
2000342e:	af00      	add	r7, sp, #0
20003430:	df00      	svc	0
20003432:	46bd      	mov	sp, r7
20003434:	f85d 7b04 	ldr.w	r7, [sp], #4
20003438:	4770      	bx	lr
2000343a:	bf00      	nop

2000343c <IsSvcActive>:
2000343c:	b580      	push	{r7, lr}
2000343e:	b082      	sub	sp, #8
20003440:	af00      	add	r7, sp, #0
20003442:	2300      	movs	r3, #0
20003444:	607b      	str	r3, [r7, #4]
20003446:	4807      	ldr	r0, [pc, #28]	; (20003464 <IsSvcActive+0x28>)
20003448:	f7fc fede 	bl	20000208 <readMemoryData>
2000344c:	6078      	str	r0, [r7, #4]
2000344e:	687b      	ldr	r3, [r7, #4]
20003450:	2b00      	cmp	r3, #0
20003452:	d001      	beq.n	20003458 <IsSvcActive+0x1c>
20003454:	2301      	movs	r3, #1
20003456:	e000      	b.n	2000345a <IsSvcActive+0x1e>
20003458:	2300      	movs	r3, #0
2000345a:	4618      	mov	r0, r3
2000345c:	3708      	adds	r7, #8
2000345e:	46bd      	mov	sp, r7
20003460:	bd80      	pop	{r7, pc}
20003462:	bf00      	nop
20003464:	e000ed24 	.word	0xe000ed24

20003468 <flashMassErase>:
20003468:	b580      	push	{r7, lr}
2000346a:	b082      	sub	sp, #8
2000346c:	af00      	add	r7, sp, #0
2000346e:	6078      	str	r0, [r7, #4]
20003470:	f000 fb86 	bl	20003b80 <HAL_FLASH_Unlock>
20003474:	4b0d      	ldr	r3, [pc, #52]	; (200034ac <flashMassErase+0x44>)
20003476:	2201      	movs	r2, #1
20003478:	601a      	str	r2, [r3, #0]
2000347a:	4b0c      	ldr	r3, [pc, #48]	; (200034ac <flashMassErase+0x44>)
2000347c:	2202      	movs	r2, #2
2000347e:	611a      	str	r2, [r3, #16]
20003480:	4a0a      	ldr	r2, [pc, #40]	; (200034ac <flashMassErase+0x44>)
20003482:	687b      	ldr	r3, [r7, #4]
20003484:	6053      	str	r3, [r2, #4]
20003486:	4809      	ldr	r0, [pc, #36]	; (200034ac <flashMassErase+0x44>)
20003488:	4909      	ldr	r1, [pc, #36]	; (200034b0 <flashMassErase+0x48>)
2000348a:	f7fc ff33 	bl	200002f4 <HAL_FLASHEx_Erase>
2000348e:	4603      	mov	r3, r0
20003490:	2b00      	cmp	r3, #0
20003492:	d006      	beq.n	200034a2 <flashMassErase+0x3a>
20003494:	f000 fbde 	bl	20003c54 <HAL_FLASH_GetError>
20003498:	4602      	mov	r2, r0
2000349a:	4b06      	ldr	r3, [pc, #24]	; (200034b4 <flashMassErase+0x4c>)
2000349c:	601a      	str	r2, [r3, #0]
2000349e:	f000 f9c7 	bl	20003830 <flashErrorHandler>
200034a2:	f000 fb87 	bl	20003bb4 <HAL_FLASH_Lock>
200034a6:	3708      	adds	r7, #8
200034a8:	46bd      	mov	sp, r7
200034aa:	bd80      	pop	{r7, pc}
200034ac:	20004470 	.word	0x20004470
200034b0:	20004488 	.word	0x20004488
200034b4:	20004484 	.word	0x20004484

200034b8 <flashErase>:
200034b8:	b580      	push	{r7, lr}
200034ba:	b084      	sub	sp, #16
200034bc:	af00      	add	r7, sp, #0
200034be:	6078      	str	r0, [r7, #4]
200034c0:	6039      	str	r1, [r7, #0]
200034c2:	2300      	movs	r3, #0
200034c4:	60fb      	str	r3, [r7, #12]
200034c6:	2300      	movs	r3, #0
200034c8:	60bb      	str	r3, [r7, #8]
200034ca:	f000 fb59 	bl	20003b80 <HAL_FLASH_Unlock>
200034ce:	6878      	ldr	r0, [r7, #4]
200034d0:	f000 f876 	bl	200035c0 <flashGetSector>
200034d4:	60f8      	str	r0, [r7, #12]
200034d6:	683a      	ldr	r2, [r7, #0]
200034d8:	687b      	ldr	r3, [r7, #4]
200034da:	4413      	add	r3, r2
200034dc:	4618      	mov	r0, r3
200034de:	f000 f86f 	bl	200035c0 <flashGetSector>
200034e2:	4602      	mov	r2, r0
200034e4:	68fb      	ldr	r3, [r7, #12]
200034e6:	1ad3      	subs	r3, r2, r3
200034e8:	3301      	adds	r3, #1
200034ea:	60bb      	str	r3, [r7, #8]
200034ec:	4b0f      	ldr	r3, [pc, #60]	; (2000352c <flashErase+0x74>)
200034ee:	2200      	movs	r2, #0
200034f0:	601a      	str	r2, [r3, #0]
200034f2:	4b0e      	ldr	r3, [pc, #56]	; (2000352c <flashErase+0x74>)
200034f4:	2202      	movs	r2, #2
200034f6:	611a      	str	r2, [r3, #16]
200034f8:	4a0c      	ldr	r2, [pc, #48]	; (2000352c <flashErase+0x74>)
200034fa:	68fb      	ldr	r3, [r7, #12]
200034fc:	6093      	str	r3, [r2, #8]
200034fe:	4a0b      	ldr	r2, [pc, #44]	; (2000352c <flashErase+0x74>)
20003500:	68bb      	ldr	r3, [r7, #8]
20003502:	60d3      	str	r3, [r2, #12]
20003504:	4809      	ldr	r0, [pc, #36]	; (2000352c <flashErase+0x74>)
20003506:	490a      	ldr	r1, [pc, #40]	; (20003530 <flashErase+0x78>)
20003508:	f7fc fef4 	bl	200002f4 <HAL_FLASHEx_Erase>
2000350c:	4603      	mov	r3, r0
2000350e:	2b00      	cmp	r3, #0
20003510:	d006      	beq.n	20003520 <flashErase+0x68>
20003512:	f000 fb9f 	bl	20003c54 <HAL_FLASH_GetError>
20003516:	4602      	mov	r2, r0
20003518:	4b06      	ldr	r3, [pc, #24]	; (20003534 <flashErase+0x7c>)
2000351a:	601a      	str	r2, [r3, #0]
2000351c:	f000 f988 	bl	20003830 <flashErrorHandler>
20003520:	f000 fb48 	bl	20003bb4 <HAL_FLASH_Lock>
20003524:	3710      	adds	r7, #16
20003526:	46bd      	mov	sp, r7
20003528:	bd80      	pop	{r7, pc}
2000352a:	bf00      	nop
2000352c:	20004470 	.word	0x20004470
20003530:	20004488 	.word	0x20004488
20003534:	20004484 	.word	0x20004484

20003538 <flashWriteProgram>:
20003538:	b580      	push	{r7, lr}
2000353a:	b084      	sub	sp, #16
2000353c:	af00      	add	r7, sp, #0
2000353e:	60f8      	str	r0, [r7, #12]
20003540:	60b9      	str	r1, [r7, #8]
20003542:	607a      	str	r2, [r7, #4]
20003544:	687b      	ldr	r3, [r7, #4]
20003546:	461a      	mov	r2, r3
20003548:	f04f 0300 	mov.w	r3, #0
2000354c:	68f8      	ldr	r0, [r7, #12]
2000354e:	68b9      	ldr	r1, [r7, #8]
20003550:	f000 f9a8 	bl	200038a4 <HAL_FLASH_Program>
20003554:	4603      	mov	r3, r0
20003556:	2b00      	cmp	r3, #0
20003558:	d006      	beq.n	20003568 <flashWriteProgram+0x30>
2000355a:	f000 fb7b 	bl	20003c54 <HAL_FLASH_GetError>
2000355e:	4602      	mov	r2, r0
20003560:	4b03      	ldr	r3, [pc, #12]	; (20003570 <flashWriteProgram+0x38>)
20003562:	601a      	str	r2, [r3, #0]
20003564:	f000 f964 	bl	20003830 <flashErrorHandler>
20003568:	3710      	adds	r7, #16
2000356a:	46bd      	mov	sp, r7
2000356c:	bd80      	pop	{r7, pc}
2000356e:	bf00      	nop
20003570:	20004484 	.word	0x20004484

20003574 <flashWrite>:
20003574:	b580      	push	{r7, lr}
20003576:	b088      	sub	sp, #32
20003578:	af00      	add	r7, sp, #0
2000357a:	60f8      	str	r0, [r7, #12]
2000357c:	60b9      	str	r1, [r7, #8]
2000357e:	607a      	str	r2, [r7, #4]
20003580:	68bb      	ldr	r3, [r7, #8]
20003582:	61bb      	str	r3, [r7, #24]
20003584:	687b      	ldr	r3, [r7, #4]
20003586:	68ba      	ldr	r2, [r7, #8]
20003588:	4413      	add	r3, r2
2000358a:	617b      	str	r3, [r7, #20]
2000358c:	f000 faf8 	bl	20003b80 <HAL_FLASH_Unlock>
20003590:	69bb      	ldr	r3, [r7, #24]
20003592:	61fb      	str	r3, [r7, #28]
20003594:	e00b      	b.n	200035ae <flashWrite+0x3a>
20003596:	68fb      	ldr	r3, [r7, #12]
20003598:	1d1a      	adds	r2, r3, #4
2000359a:	60fa      	str	r2, [r7, #12]
2000359c:	681b      	ldr	r3, [r3, #0]
2000359e:	2002      	movs	r0, #2
200035a0:	69f9      	ldr	r1, [r7, #28]
200035a2:	461a      	mov	r2, r3
200035a4:	f7ff ffc8 	bl	20003538 <flashWriteProgram>
200035a8:	69fb      	ldr	r3, [r7, #28]
200035aa:	3304      	adds	r3, #4
200035ac:	61fb      	str	r3, [r7, #28]
200035ae:	69fa      	ldr	r2, [r7, #28]
200035b0:	697b      	ldr	r3, [r7, #20]
200035b2:	429a      	cmp	r2, r3
200035b4:	d3ef      	bcc.n	20003596 <flashWrite+0x22>
200035b6:	f000 fafd 	bl	20003bb4 <HAL_FLASH_Lock>
200035ba:	3720      	adds	r7, #32
200035bc:	46bd      	mov	sp, r7
200035be:	bd80      	pop	{r7, pc}

200035c0 <flashGetSector>:
200035c0:	b480      	push	{r7}
200035c2:	b085      	sub	sp, #20
200035c4:	af00      	add	r7, sp, #0
200035c6:	6078      	str	r0, [r7, #4]
200035c8:	2300      	movs	r3, #0
200035ca:	60fb      	str	r3, [r7, #12]
200035cc:	687b      	ldr	r3, [r7, #4]
200035ce:	4a82      	ldr	r2, [pc, #520]	; (200037d8 <flashGetSector+0x218>)
200035d0:	4293      	cmp	r3, r2
200035d2:	d806      	bhi.n	200035e2 <flashGetSector+0x22>
200035d4:	687b      	ldr	r3, [r7, #4]
200035d6:	f1b3 6f00 	cmp.w	r3, #134217728	; 0x8000000
200035da:	d302      	bcc.n	200035e2 <flashGetSector+0x22>
200035dc:	2300      	movs	r3, #0
200035de:	60fb      	str	r3, [r7, #12]
200035e0:	e0f3      	b.n	200037ca <flashGetSector+0x20a>
200035e2:	687b      	ldr	r3, [r7, #4]
200035e4:	4a7d      	ldr	r2, [pc, #500]	; (200037dc <flashGetSector+0x21c>)
200035e6:	4293      	cmp	r3, r2
200035e8:	d806      	bhi.n	200035f8 <flashGetSector+0x38>
200035ea:	687b      	ldr	r3, [r7, #4]
200035ec:	4a7a      	ldr	r2, [pc, #488]	; (200037d8 <flashGetSector+0x218>)
200035ee:	4293      	cmp	r3, r2
200035f0:	d902      	bls.n	200035f8 <flashGetSector+0x38>
200035f2:	2301      	movs	r3, #1
200035f4:	60fb      	str	r3, [r7, #12]
200035f6:	e0e8      	b.n	200037ca <flashGetSector+0x20a>
200035f8:	687b      	ldr	r3, [r7, #4]
200035fa:	4a79      	ldr	r2, [pc, #484]	; (200037e0 <flashGetSector+0x220>)
200035fc:	4293      	cmp	r3, r2
200035fe:	d806      	bhi.n	2000360e <flashGetSector+0x4e>
20003600:	687b      	ldr	r3, [r7, #4]
20003602:	4a76      	ldr	r2, [pc, #472]	; (200037dc <flashGetSector+0x21c>)
20003604:	4293      	cmp	r3, r2
20003606:	d902      	bls.n	2000360e <flashGetSector+0x4e>
20003608:	2302      	movs	r3, #2
2000360a:	60fb      	str	r3, [r7, #12]
2000360c:	e0dd      	b.n	200037ca <flashGetSector+0x20a>
2000360e:	687b      	ldr	r3, [r7, #4]
20003610:	4a74      	ldr	r2, [pc, #464]	; (200037e4 <flashGetSector+0x224>)
20003612:	4293      	cmp	r3, r2
20003614:	d806      	bhi.n	20003624 <flashGetSector+0x64>
20003616:	687b      	ldr	r3, [r7, #4]
20003618:	4a71      	ldr	r2, [pc, #452]	; (200037e0 <flashGetSector+0x220>)
2000361a:	4293      	cmp	r3, r2
2000361c:	d902      	bls.n	20003624 <flashGetSector+0x64>
2000361e:	2303      	movs	r3, #3
20003620:	60fb      	str	r3, [r7, #12]
20003622:	e0d2      	b.n	200037ca <flashGetSector+0x20a>
20003624:	687b      	ldr	r3, [r7, #4]
20003626:	4a70      	ldr	r2, [pc, #448]	; (200037e8 <flashGetSector+0x228>)
20003628:	4293      	cmp	r3, r2
2000362a:	d806      	bhi.n	2000363a <flashGetSector+0x7a>
2000362c:	687b      	ldr	r3, [r7, #4]
2000362e:	4a6d      	ldr	r2, [pc, #436]	; (200037e4 <flashGetSector+0x224>)
20003630:	4293      	cmp	r3, r2
20003632:	d902      	bls.n	2000363a <flashGetSector+0x7a>
20003634:	2304      	movs	r3, #4
20003636:	60fb      	str	r3, [r7, #12]
20003638:	e0c7      	b.n	200037ca <flashGetSector+0x20a>
2000363a:	687b      	ldr	r3, [r7, #4]
2000363c:	4a6b      	ldr	r2, [pc, #428]	; (200037ec <flashGetSector+0x22c>)
2000363e:	4293      	cmp	r3, r2
20003640:	d806      	bhi.n	20003650 <flashGetSector+0x90>
20003642:	687b      	ldr	r3, [r7, #4]
20003644:	4a68      	ldr	r2, [pc, #416]	; (200037e8 <flashGetSector+0x228>)
20003646:	4293      	cmp	r3, r2
20003648:	d902      	bls.n	20003650 <flashGetSector+0x90>
2000364a:	2305      	movs	r3, #5
2000364c:	60fb      	str	r3, [r7, #12]
2000364e:	e0bc      	b.n	200037ca <flashGetSector+0x20a>
20003650:	687b      	ldr	r3, [r7, #4]
20003652:	4a67      	ldr	r2, [pc, #412]	; (200037f0 <flashGetSector+0x230>)
20003654:	4293      	cmp	r3, r2
20003656:	d806      	bhi.n	20003666 <flashGetSector+0xa6>
20003658:	687b      	ldr	r3, [r7, #4]
2000365a:	4a64      	ldr	r2, [pc, #400]	; (200037ec <flashGetSector+0x22c>)
2000365c:	4293      	cmp	r3, r2
2000365e:	d902      	bls.n	20003666 <flashGetSector+0xa6>
20003660:	2306      	movs	r3, #6
20003662:	60fb      	str	r3, [r7, #12]
20003664:	e0b1      	b.n	200037ca <flashGetSector+0x20a>
20003666:	687b      	ldr	r3, [r7, #4]
20003668:	4a62      	ldr	r2, [pc, #392]	; (200037f4 <flashGetSector+0x234>)
2000366a:	4293      	cmp	r3, r2
2000366c:	d806      	bhi.n	2000367c <flashGetSector+0xbc>
2000366e:	687b      	ldr	r3, [r7, #4]
20003670:	4a5f      	ldr	r2, [pc, #380]	; (200037f0 <flashGetSector+0x230>)
20003672:	4293      	cmp	r3, r2
20003674:	d902      	bls.n	2000367c <flashGetSector+0xbc>
20003676:	2307      	movs	r3, #7
20003678:	60fb      	str	r3, [r7, #12]
2000367a:	e0a6      	b.n	200037ca <flashGetSector+0x20a>
2000367c:	687b      	ldr	r3, [r7, #4]
2000367e:	4a5e      	ldr	r2, [pc, #376]	; (200037f8 <flashGetSector+0x238>)
20003680:	4293      	cmp	r3, r2
20003682:	d806      	bhi.n	20003692 <flashGetSector+0xd2>
20003684:	687b      	ldr	r3, [r7, #4]
20003686:	4a5b      	ldr	r2, [pc, #364]	; (200037f4 <flashGetSector+0x234>)
20003688:	4293      	cmp	r3, r2
2000368a:	d902      	bls.n	20003692 <flashGetSector+0xd2>
2000368c:	2308      	movs	r3, #8
2000368e:	60fb      	str	r3, [r7, #12]
20003690:	e09b      	b.n	200037ca <flashGetSector+0x20a>
20003692:	687b      	ldr	r3, [r7, #4]
20003694:	4a59      	ldr	r2, [pc, #356]	; (200037fc <flashGetSector+0x23c>)
20003696:	4293      	cmp	r3, r2
20003698:	d806      	bhi.n	200036a8 <flashGetSector+0xe8>
2000369a:	687b      	ldr	r3, [r7, #4]
2000369c:	4a56      	ldr	r2, [pc, #344]	; (200037f8 <flashGetSector+0x238>)
2000369e:	4293      	cmp	r3, r2
200036a0:	d902      	bls.n	200036a8 <flashGetSector+0xe8>
200036a2:	2309      	movs	r3, #9
200036a4:	60fb      	str	r3, [r7, #12]
200036a6:	e090      	b.n	200037ca <flashGetSector+0x20a>
200036a8:	687b      	ldr	r3, [r7, #4]
200036aa:	4a55      	ldr	r2, [pc, #340]	; (20003800 <flashGetSector+0x240>)
200036ac:	4293      	cmp	r3, r2
200036ae:	d806      	bhi.n	200036be <flashGetSector+0xfe>
200036b0:	687b      	ldr	r3, [r7, #4]
200036b2:	4a52      	ldr	r2, [pc, #328]	; (200037fc <flashGetSector+0x23c>)
200036b4:	4293      	cmp	r3, r2
200036b6:	d902      	bls.n	200036be <flashGetSector+0xfe>
200036b8:	230a      	movs	r3, #10
200036ba:	60fb      	str	r3, [r7, #12]
200036bc:	e085      	b.n	200037ca <flashGetSector+0x20a>
200036be:	687b      	ldr	r3, [r7, #4]
200036c0:	f1b3 6f01 	cmp.w	r3, #135266304	; 0x8100000
200036c4:	d206      	bcs.n	200036d4 <flashGetSector+0x114>
200036c6:	687b      	ldr	r3, [r7, #4]
200036c8:	4a4d      	ldr	r2, [pc, #308]	; (20003800 <flashGetSector+0x240>)
200036ca:	4293      	cmp	r3, r2
200036cc:	d902      	bls.n	200036d4 <flashGetSector+0x114>
200036ce:	230b      	movs	r3, #11
200036d0:	60fb      	str	r3, [r7, #12]
200036d2:	e07a      	b.n	200037ca <flashGetSector+0x20a>
200036d4:	687b      	ldr	r3, [r7, #4]
200036d6:	4a4b      	ldr	r2, [pc, #300]	; (20003804 <flashGetSector+0x244>)
200036d8:	4293      	cmp	r3, r2
200036da:	d806      	bhi.n	200036ea <flashGetSector+0x12a>
200036dc:	687b      	ldr	r3, [r7, #4]
200036de:	f1b3 6f01 	cmp.w	r3, #135266304	; 0x8100000
200036e2:	d302      	bcc.n	200036ea <flashGetSector+0x12a>
200036e4:	230c      	movs	r3, #12
200036e6:	60fb      	str	r3, [r7, #12]
200036e8:	e06f      	b.n	200037ca <flashGetSector+0x20a>
200036ea:	687b      	ldr	r3, [r7, #4]
200036ec:	4a46      	ldr	r2, [pc, #280]	; (20003808 <flashGetSector+0x248>)
200036ee:	4293      	cmp	r3, r2
200036f0:	d806      	bhi.n	20003700 <flashGetSector+0x140>
200036f2:	687b      	ldr	r3, [r7, #4]
200036f4:	4a43      	ldr	r2, [pc, #268]	; (20003804 <flashGetSector+0x244>)
200036f6:	4293      	cmp	r3, r2
200036f8:	d902      	bls.n	20003700 <flashGetSector+0x140>
200036fa:	230d      	movs	r3, #13
200036fc:	60fb      	str	r3, [r7, #12]
200036fe:	e064      	b.n	200037ca <flashGetSector+0x20a>
20003700:	687b      	ldr	r3, [r7, #4]
20003702:	4a42      	ldr	r2, [pc, #264]	; (2000380c <flashGetSector+0x24c>)
20003704:	4293      	cmp	r3, r2
20003706:	d806      	bhi.n	20003716 <flashGetSector+0x156>
20003708:	687b      	ldr	r3, [r7, #4]
2000370a:	4a3f      	ldr	r2, [pc, #252]	; (20003808 <flashGetSector+0x248>)
2000370c:	4293      	cmp	r3, r2
2000370e:	d902      	bls.n	20003716 <flashGetSector+0x156>
20003710:	230e      	movs	r3, #14
20003712:	60fb      	str	r3, [r7, #12]
20003714:	e059      	b.n	200037ca <flashGetSector+0x20a>
20003716:	687b      	ldr	r3, [r7, #4]
20003718:	4a3d      	ldr	r2, [pc, #244]	; (20003810 <flashGetSector+0x250>)
2000371a:	4293      	cmp	r3, r2
2000371c:	d806      	bhi.n	2000372c <flashGetSector+0x16c>
2000371e:	687b      	ldr	r3, [r7, #4]
20003720:	4a3a      	ldr	r2, [pc, #232]	; (2000380c <flashGetSector+0x24c>)
20003722:	4293      	cmp	r3, r2
20003724:	d902      	bls.n	2000372c <flashGetSector+0x16c>
20003726:	230f      	movs	r3, #15
20003728:	60fb      	str	r3, [r7, #12]
2000372a:	e04e      	b.n	200037ca <flashGetSector+0x20a>
2000372c:	687b      	ldr	r3, [r7, #4]
2000372e:	4a39      	ldr	r2, [pc, #228]	; (20003814 <flashGetSector+0x254>)
20003730:	4293      	cmp	r3, r2
20003732:	d806      	bhi.n	20003742 <flashGetSector+0x182>
20003734:	687b      	ldr	r3, [r7, #4]
20003736:	4a36      	ldr	r2, [pc, #216]	; (20003810 <flashGetSector+0x250>)
20003738:	4293      	cmp	r3, r2
2000373a:	d902      	bls.n	20003742 <flashGetSector+0x182>
2000373c:	2310      	movs	r3, #16
2000373e:	60fb      	str	r3, [r7, #12]
20003740:	e043      	b.n	200037ca <flashGetSector+0x20a>
20003742:	687b      	ldr	r3, [r7, #4]
20003744:	4a34      	ldr	r2, [pc, #208]	; (20003818 <flashGetSector+0x258>)
20003746:	4293      	cmp	r3, r2
20003748:	d806      	bhi.n	20003758 <flashGetSector+0x198>
2000374a:	687b      	ldr	r3, [r7, #4]
2000374c:	4a31      	ldr	r2, [pc, #196]	; (20003814 <flashGetSector+0x254>)
2000374e:	4293      	cmp	r3, r2
20003750:	d902      	bls.n	20003758 <flashGetSector+0x198>
20003752:	2311      	movs	r3, #17
20003754:	60fb      	str	r3, [r7, #12]
20003756:	e038      	b.n	200037ca <flashGetSector+0x20a>
20003758:	687b      	ldr	r3, [r7, #4]
2000375a:	4a30      	ldr	r2, [pc, #192]	; (2000381c <flashGetSector+0x25c>)
2000375c:	4293      	cmp	r3, r2
2000375e:	d806      	bhi.n	2000376e <flashGetSector+0x1ae>
20003760:	687b      	ldr	r3, [r7, #4]
20003762:	4a2d      	ldr	r2, [pc, #180]	; (20003818 <flashGetSector+0x258>)
20003764:	4293      	cmp	r3, r2
20003766:	d902      	bls.n	2000376e <flashGetSector+0x1ae>
20003768:	2312      	movs	r3, #18
2000376a:	60fb      	str	r3, [r7, #12]
2000376c:	e02d      	b.n	200037ca <flashGetSector+0x20a>
2000376e:	687b      	ldr	r3, [r7, #4]
20003770:	4a2b      	ldr	r2, [pc, #172]	; (20003820 <flashGetSector+0x260>)
20003772:	4293      	cmp	r3, r2
20003774:	d806      	bhi.n	20003784 <flashGetSector+0x1c4>
20003776:	687b      	ldr	r3, [r7, #4]
20003778:	4a28      	ldr	r2, [pc, #160]	; (2000381c <flashGetSector+0x25c>)
2000377a:	4293      	cmp	r3, r2
2000377c:	d902      	bls.n	20003784 <flashGetSector+0x1c4>
2000377e:	2313      	movs	r3, #19
20003780:	60fb      	str	r3, [r7, #12]
20003782:	e022      	b.n	200037ca <flashGetSector+0x20a>
20003784:	687b      	ldr	r3, [r7, #4]
20003786:	4a27      	ldr	r2, [pc, #156]	; (20003824 <flashGetSector+0x264>)
20003788:	4293      	cmp	r3, r2
2000378a:	d806      	bhi.n	2000379a <flashGetSector+0x1da>
2000378c:	687b      	ldr	r3, [r7, #4]
2000378e:	4a24      	ldr	r2, [pc, #144]	; (20003820 <flashGetSector+0x260>)
20003790:	4293      	cmp	r3, r2
20003792:	d902      	bls.n	2000379a <flashGetSector+0x1da>
20003794:	2314      	movs	r3, #20
20003796:	60fb      	str	r3, [r7, #12]
20003798:	e017      	b.n	200037ca <flashGetSector+0x20a>
2000379a:	687b      	ldr	r3, [r7, #4]
2000379c:	4a22      	ldr	r2, [pc, #136]	; (20003828 <flashGetSector+0x268>)
2000379e:	4293      	cmp	r3, r2
200037a0:	d806      	bhi.n	200037b0 <flashGetSector+0x1f0>
200037a2:	687b      	ldr	r3, [r7, #4]
200037a4:	4a1f      	ldr	r2, [pc, #124]	; (20003824 <flashGetSector+0x264>)
200037a6:	4293      	cmp	r3, r2
200037a8:	d902      	bls.n	200037b0 <flashGetSector+0x1f0>
200037aa:	2315      	movs	r3, #21
200037ac:	60fb      	str	r3, [r7, #12]
200037ae:	e00c      	b.n	200037ca <flashGetSector+0x20a>
200037b0:	687b      	ldr	r3, [r7, #4]
200037b2:	4a1e      	ldr	r2, [pc, #120]	; (2000382c <flashGetSector+0x26c>)
200037b4:	4293      	cmp	r3, r2
200037b6:	d806      	bhi.n	200037c6 <flashGetSector+0x206>
200037b8:	687b      	ldr	r3, [r7, #4]
200037ba:	4a1b      	ldr	r2, [pc, #108]	; (20003828 <flashGetSector+0x268>)
200037bc:	4293      	cmp	r3, r2
200037be:	d902      	bls.n	200037c6 <flashGetSector+0x206>
200037c0:	2316      	movs	r3, #22
200037c2:	60fb      	str	r3, [r7, #12]
200037c4:	e001      	b.n	200037ca <flashGetSector+0x20a>
200037c6:	2317      	movs	r3, #23
200037c8:	60fb      	str	r3, [r7, #12]
200037ca:	68fb      	ldr	r3, [r7, #12]
200037cc:	4618      	mov	r0, r3
200037ce:	3714      	adds	r7, #20
200037d0:	46bd      	mov	sp, r7
200037d2:	f85d 7b04 	ldr.w	r7, [sp], #4
200037d6:	4770      	bx	lr
200037d8:	08003fff 	.word	0x08003fff
200037dc:	08007fff 	.word	0x08007fff
200037e0:	0800bfff 	.word	0x0800bfff
200037e4:	0800ffff 	.word	0x0800ffff
200037e8:	0801ffff 	.word	0x0801ffff
200037ec:	0803ffff 	.word	0x0803ffff
200037f0:	0805ffff 	.word	0x0805ffff
200037f4:	0807ffff 	.word	0x0807ffff
200037f8:	0809ffff 	.word	0x0809ffff
200037fc:	080bffff 	.word	0x080bffff
20003800:	080dffff 	.word	0x080dffff
20003804:	08103fff 	.word	0x08103fff
20003808:	08107fff 	.word	0x08107fff
2000380c:	0810bfff 	.word	0x0810bfff
20003810:	0810ffff 	.word	0x0810ffff
20003814:	0811ffff 	.word	0x0811ffff
20003818:	0813ffff 	.word	0x0813ffff
2000381c:	0815ffff 	.word	0x0815ffff
20003820:	0817ffff 	.word	0x0817ffff
20003824:	0819ffff 	.word	0x0819ffff
20003828:	081bffff 	.word	0x081bffff
2000382c:	081dffff 	.word	0x081dffff

20003830 <flashErrorHandler>:
20003830:	b580      	push	{r7, lr}
20003832:	af00      	add	r7, sp, #0
20003834:	4803      	ldr	r0, [pc, #12]	; (20003844 <flashErrorHandler+0x14>)
20003836:	f44f 4180 	mov.w	r1, #16384	; 0x4000
2000383a:	2201      	movs	r2, #1
2000383c:	f7fd ff68 	bl	20001710 <HAL_GPIO_WritePin>
20003840:	e7fe      	b.n	20003840 <flashErrorHandler+0x10>
20003842:	bf00      	nop
20003844:	40021800 	.word	0x40021800

20003848 <flashCopyFromSramToFlash>:
20003848:	b580      	push	{r7, lr}
2000384a:	b088      	sub	sp, #32
2000384c:	af00      	add	r7, sp, #0
2000384e:	60f8      	str	r0, [r7, #12]
20003850:	60b9      	str	r1, [r7, #8]
20003852:	607a      	str	r2, [r7, #4]
20003854:	2300      	movs	r3, #0
20003856:	613b      	str	r3, [r7, #16]
20003858:	68fb      	ldr	r3, [r7, #12]
2000385a:	61bb      	str	r3, [r7, #24]
2000385c:	68bb      	ldr	r3, [r7, #8]
2000385e:	617b      	str	r3, [r7, #20]
20003860:	f000 f98e 	bl	20003b80 <HAL_FLASH_Unlock>
20003864:	2300      	movs	r3, #0
20003866:	61fb      	str	r3, [r7, #28]
20003868:	e013      	b.n	20003892 <flashCopyFromSramToFlash+0x4a>
2000386a:	69b8      	ldr	r0, [r7, #24]
2000386c:	f7fc fccc 	bl	20000208 <readMemoryData>
20003870:	4603      	mov	r3, r0
20003872:	613b      	str	r3, [r7, #16]
20003874:	693b      	ldr	r3, [r7, #16]
20003876:	2002      	movs	r0, #2
20003878:	6979      	ldr	r1, [r7, #20]
2000387a:	461a      	mov	r2, r3
2000387c:	f7ff fe5c 	bl	20003538 <flashWriteProgram>
20003880:	69fb      	ldr	r3, [r7, #28]
20003882:	3304      	adds	r3, #4
20003884:	61fb      	str	r3, [r7, #28]
20003886:	69bb      	ldr	r3, [r7, #24]
20003888:	3304      	adds	r3, #4
2000388a:	61bb      	str	r3, [r7, #24]
2000388c:	697b      	ldr	r3, [r7, #20]
2000388e:	3304      	adds	r3, #4
20003890:	617b      	str	r3, [r7, #20]
20003892:	69fa      	ldr	r2, [r7, #28]
20003894:	687b      	ldr	r3, [r7, #4]
20003896:	429a      	cmp	r2, r3
20003898:	dbe7      	blt.n	2000386a <flashCopyFromSramToFlash+0x22>
2000389a:	f000 f98b 	bl	20003bb4 <HAL_FLASH_Lock>
2000389e:	3720      	adds	r7, #32
200038a0:	46bd      	mov	sp, r7
200038a2:	bd80      	pop	{r7, pc}

200038a4 <HAL_FLASH_Program>:
200038a4:	b580      	push	{r7, lr}
200038a6:	b086      	sub	sp, #24
200038a8:	af00      	add	r7, sp, #0
200038aa:	60f8      	str	r0, [r7, #12]
200038ac:	60b9      	str	r1, [r7, #8]
200038ae:	e9c7 2300 	strd	r2, r3, [r7]
200038b2:	2301      	movs	r3, #1
200038b4:	75fb      	strb	r3, [r7, #23]
200038b6:	4b23      	ldr	r3, [pc, #140]	; (20003944 <HAL_FLASH_Program+0xa0>)
200038b8:	7e1b      	ldrb	r3, [r3, #24]
200038ba:	2b01      	cmp	r3, #1
200038bc:	d101      	bne.n	200038c2 <HAL_FLASH_Program+0x1e>
200038be:	2302      	movs	r3, #2
200038c0:	e03b      	b.n	2000393a <HAL_FLASH_Program+0x96>
200038c2:	4b20      	ldr	r3, [pc, #128]	; (20003944 <HAL_FLASH_Program+0xa0>)
200038c4:	2201      	movs	r2, #1
200038c6:	761a      	strb	r2, [r3, #24]
200038c8:	f24c 3050 	movw	r0, #50000	; 0xc350
200038cc:	f000 f9ce 	bl	20003c6c <FLASH_WaitForLastOperation>
200038d0:	4603      	mov	r3, r0
200038d2:	75fb      	strb	r3, [r7, #23]
200038d4:	7dfb      	ldrb	r3, [r7, #23]
200038d6:	2b00      	cmp	r3, #0
200038d8:	d12b      	bne.n	20003932 <HAL_FLASH_Program+0x8e>
200038da:	68fb      	ldr	r3, [r7, #12]
200038dc:	2b00      	cmp	r3, #0
200038de:	d105      	bne.n	200038ec <HAL_FLASH_Program+0x48>
200038e0:	783b      	ldrb	r3, [r7, #0]
200038e2:	68b8      	ldr	r0, [r7, #8]
200038e4:	4619      	mov	r1, r3
200038e6:	f000 fa61 	bl	20003dac <FLASH_Program_Byte>
200038ea:	e016      	b.n	2000391a <HAL_FLASH_Program+0x76>
200038ec:	68fb      	ldr	r3, [r7, #12]
200038ee:	2b01      	cmp	r3, #1
200038f0:	d105      	bne.n	200038fe <HAL_FLASH_Program+0x5a>
200038f2:	883b      	ldrh	r3, [r7, #0]
200038f4:	68b8      	ldr	r0, [r7, #8]
200038f6:	4619      	mov	r1, r3
200038f8:	f000 fa36 	bl	20003d68 <FLASH_Program_HalfWord>
200038fc:	e00d      	b.n	2000391a <HAL_FLASH_Program+0x76>
200038fe:	68fb      	ldr	r3, [r7, #12]
20003900:	2b02      	cmp	r3, #2
20003902:	d105      	bne.n	20003910 <HAL_FLASH_Program+0x6c>
20003904:	683b      	ldr	r3, [r7, #0]
20003906:	68b8      	ldr	r0, [r7, #8]
20003908:	4619      	mov	r1, r3
2000390a:	f000 fa0b 	bl	20003d24 <FLASH_Program_Word>
2000390e:	e004      	b.n	2000391a <HAL_FLASH_Program+0x76>
20003910:	68b8      	ldr	r0, [r7, #8]
20003912:	e9d7 2300 	ldrd	r2, r3, [r7]
20003916:	f000 f9e1 	bl	20003cdc <FLASH_Program_DoubleWord>
2000391a:	f24c 3050 	movw	r0, #50000	; 0xc350
2000391e:	f000 f9a5 	bl	20003c6c <FLASH_WaitForLastOperation>
20003922:	4603      	mov	r3, r0
20003924:	75fb      	strb	r3, [r7, #23]
20003926:	4a08      	ldr	r2, [pc, #32]	; (20003948 <HAL_FLASH_Program+0xa4>)
20003928:	4b07      	ldr	r3, [pc, #28]	; (20003948 <HAL_FLASH_Program+0xa4>)
2000392a:	691b      	ldr	r3, [r3, #16]
2000392c:	f023 0301 	bic.w	r3, r3, #1
20003930:	6113      	str	r3, [r2, #16]
20003932:	4b04      	ldr	r3, [pc, #16]	; (20003944 <HAL_FLASH_Program+0xa0>)
20003934:	2200      	movs	r2, #0
20003936:	761a      	strb	r2, [r3, #24]
20003938:	7dfb      	ldrb	r3, [r7, #23]
2000393a:	4618      	mov	r0, r3
2000393c:	3718      	adds	r7, #24
2000393e:	46bd      	mov	sp, r7
20003940:	bd80      	pop	{r7, pc}
20003942:	bf00      	nop
20003944:	2000448c 	.word	0x2000448c
20003948:	40023c00 	.word	0x40023c00

2000394c <HAL_FLASH_Program_IT>:
2000394c:	b580      	push	{r7, lr}
2000394e:	b086      	sub	sp, #24
20003950:	af00      	add	r7, sp, #0
20003952:	60f8      	str	r0, [r7, #12]
20003954:	60b9      	str	r1, [r7, #8]
20003956:	e9c7 2300 	strd	r2, r3, [r7]
2000395a:	2300      	movs	r3, #0
2000395c:	75fb      	strb	r3, [r7, #23]
2000395e:	4b21      	ldr	r3, [pc, #132]	; (200039e4 <HAL_FLASH_Program_IT+0x98>)
20003960:	7e1b      	ldrb	r3, [r3, #24]
20003962:	2b01      	cmp	r3, #1
20003964:	d101      	bne.n	2000396a <HAL_FLASH_Program_IT+0x1e>
20003966:	2302      	movs	r3, #2
20003968:	e038      	b.n	200039dc <HAL_FLASH_Program_IT+0x90>
2000396a:	4b1e      	ldr	r3, [pc, #120]	; (200039e4 <HAL_FLASH_Program_IT+0x98>)
2000396c:	2201      	movs	r2, #1
2000396e:	761a      	strb	r2, [r3, #24]
20003970:	4a1d      	ldr	r2, [pc, #116]	; (200039e8 <HAL_FLASH_Program_IT+0x9c>)
20003972:	4b1d      	ldr	r3, [pc, #116]	; (200039e8 <HAL_FLASH_Program_IT+0x9c>)
20003974:	691b      	ldr	r3, [r3, #16]
20003976:	f043 7380 	orr.w	r3, r3, #16777216	; 0x1000000
2000397a:	6113      	str	r3, [r2, #16]
2000397c:	4a1a      	ldr	r2, [pc, #104]	; (200039e8 <HAL_FLASH_Program_IT+0x9c>)
2000397e:	4b1a      	ldr	r3, [pc, #104]	; (200039e8 <HAL_FLASH_Program_IT+0x9c>)
20003980:	691b      	ldr	r3, [r3, #16]
20003982:	f043 7300 	orr.w	r3, r3, #33554432	; 0x2000000
20003986:	6113      	str	r3, [r2, #16]
20003988:	4b17      	ldr	r3, [pc, #92]	; (200039e8 <HAL_FLASH_Program_IT+0x9c>)
2000398a:	22f3      	movs	r2, #243	; 0xf3
2000398c:	60da      	str	r2, [r3, #12]
2000398e:	4b15      	ldr	r3, [pc, #84]	; (200039e4 <HAL_FLASH_Program_IT+0x98>)
20003990:	2203      	movs	r2, #3
20003992:	701a      	strb	r2, [r3, #0]
20003994:	4a13      	ldr	r2, [pc, #76]	; (200039e4 <HAL_FLASH_Program_IT+0x98>)
20003996:	68bb      	ldr	r3, [r7, #8]
20003998:	6153      	str	r3, [r2, #20]
2000399a:	68fb      	ldr	r3, [r7, #12]
2000399c:	2b00      	cmp	r3, #0
2000399e:	d105      	bne.n	200039ac <HAL_FLASH_Program_IT+0x60>
200039a0:	783b      	ldrb	r3, [r7, #0]
200039a2:	68b8      	ldr	r0, [r7, #8]
200039a4:	4619      	mov	r1, r3
200039a6:	f000 fa01 	bl	20003dac <FLASH_Program_Byte>
200039aa:	e016      	b.n	200039da <HAL_FLASH_Program_IT+0x8e>
200039ac:	68fb      	ldr	r3, [r7, #12]
200039ae:	2b01      	cmp	r3, #1
200039b0:	d105      	bne.n	200039be <HAL_FLASH_Program_IT+0x72>
200039b2:	883b      	ldrh	r3, [r7, #0]
200039b4:	68b8      	ldr	r0, [r7, #8]
200039b6:	4619      	mov	r1, r3
200039b8:	f000 f9d6 	bl	20003d68 <FLASH_Program_HalfWord>
200039bc:	e00d      	b.n	200039da <HAL_FLASH_Program_IT+0x8e>
200039be:	68fb      	ldr	r3, [r7, #12]
200039c0:	2b02      	cmp	r3, #2
200039c2:	d105      	bne.n	200039d0 <HAL_FLASH_Program_IT+0x84>
200039c4:	683b      	ldr	r3, [r7, #0]
200039c6:	68b8      	ldr	r0, [r7, #8]
200039c8:	4619      	mov	r1, r3
200039ca:	f000 f9ab 	bl	20003d24 <FLASH_Program_Word>
200039ce:	e004      	b.n	200039da <HAL_FLASH_Program_IT+0x8e>
200039d0:	68b8      	ldr	r0, [r7, #8]
200039d2:	e9d7 2300 	ldrd	r2, r3, [r7]
200039d6:	f000 f981 	bl	20003cdc <FLASH_Program_DoubleWord>
200039da:	7dfb      	ldrb	r3, [r7, #23]
200039dc:	4618      	mov	r0, r3
200039de:	3718      	adds	r7, #24
200039e0:	46bd      	mov	sp, r7
200039e2:	bd80      	pop	{r7, pc}
200039e4:	2000448c 	.word	0x2000448c
200039e8:	40023c00 	.word	0x40023c00

200039ec <HAL_FLASH_IRQHandler>:
200039ec:	b580      	push	{r7, lr}
200039ee:	b082      	sub	sp, #8
200039f0:	af00      	add	r7, sp, #0
200039f2:	4a57      	ldr	r2, [pc, #348]	; (20003b50 <HAL_FLASH_IRQHandler+0x164>)
200039f4:	4b56      	ldr	r3, [pc, #344]	; (20003b50 <HAL_FLASH_IRQHandler+0x164>)
200039f6:	691b      	ldr	r3, [r3, #16]
200039f8:	f023 0301 	bic.w	r3, r3, #1
200039fc:	6113      	str	r3, [r2, #16]
200039fe:	4a54      	ldr	r2, [pc, #336]	; (20003b50 <HAL_FLASH_IRQHandler+0x164>)
20003a00:	4b53      	ldr	r3, [pc, #332]	; (20003b50 <HAL_FLASH_IRQHandler+0x164>)
20003a02:	691b      	ldr	r3, [r3, #16]
20003a04:	f023 0302 	bic.w	r3, r3, #2
20003a08:	6113      	str	r3, [r2, #16]
20003a0a:	4a51      	ldr	r2, [pc, #324]	; (20003b50 <HAL_FLASH_IRQHandler+0x164>)
20003a0c:	4b50      	ldr	r3, [pc, #320]	; (20003b50 <HAL_FLASH_IRQHandler+0x164>)
20003a0e:	691b      	ldr	r3, [r3, #16]
20003a10:	f023 03f8 	bic.w	r3, r3, #248	; 0xf8
20003a14:	6113      	str	r3, [r2, #16]
20003a16:	4a4e      	ldr	r2, [pc, #312]	; (20003b50 <HAL_FLASH_IRQHandler+0x164>)
20003a18:	4b4d      	ldr	r3, [pc, #308]	; (20003b50 <HAL_FLASH_IRQHandler+0x164>)
20003a1a:	691b      	ldr	r3, [r3, #16]
20003a1c:	f423 4300 	bic.w	r3, r3, #32768	; 0x8000
20003a20:	f023 0304 	bic.w	r3, r3, #4
20003a24:	6113      	str	r3, [r2, #16]
20003a26:	4b4a      	ldr	r3, [pc, #296]	; (20003b50 <HAL_FLASH_IRQHandler+0x164>)
20003a28:	68db      	ldr	r3, [r3, #12]
20003a2a:	f003 0301 	and.w	r3, r3, #1
20003a2e:	2b00      	cmp	r3, #0
20003a30:	d04c      	beq.n	20003acc <HAL_FLASH_IRQHandler+0xe0>
20003a32:	4b48      	ldr	r3, [pc, #288]	; (20003b54 <HAL_FLASH_IRQHandler+0x168>)
20003a34:	781b      	ldrb	r3, [r3, #0]
20003a36:	b2db      	uxtb	r3, r3
20003a38:	2b01      	cmp	r3, #1
20003a3a:	d131      	bne.n	20003aa0 <HAL_FLASH_IRQHandler+0xb4>
20003a3c:	4b45      	ldr	r3, [pc, #276]	; (20003b54 <HAL_FLASH_IRQHandler+0x168>)
20003a3e:	685b      	ldr	r3, [r3, #4]
20003a40:	3b01      	subs	r3, #1
20003a42:	4a44      	ldr	r2, [pc, #272]	; (20003b54 <HAL_FLASH_IRQHandler+0x168>)
20003a44:	6053      	str	r3, [r2, #4]
20003a46:	4b43      	ldr	r3, [pc, #268]	; (20003b54 <HAL_FLASH_IRQHandler+0x168>)
20003a48:	685b      	ldr	r3, [r3, #4]
20003a4a:	2b00      	cmp	r3, #0
20003a4c:	d018      	beq.n	20003a80 <HAL_FLASH_IRQHandler+0x94>
20003a4e:	4b41      	ldr	r3, [pc, #260]	; (20003b54 <HAL_FLASH_IRQHandler+0x168>)
20003a50:	68db      	ldr	r3, [r3, #12]
20003a52:	607b      	str	r3, [r7, #4]
20003a54:	6878      	ldr	r0, [r7, #4]
20003a56:	f000 f87f 	bl	20003b58 <HAL_FLASH_EndOfOperationCallback>
20003a5a:	4b3d      	ldr	r3, [pc, #244]	; (20003b50 <HAL_FLASH_IRQHandler+0x164>)
20003a5c:	22f3      	movs	r2, #243	; 0xf3
20003a5e:	60da      	str	r2, [r3, #12]
20003a60:	4b3c      	ldr	r3, [pc, #240]	; (20003b54 <HAL_FLASH_IRQHandler+0x168>)
20003a62:	68db      	ldr	r3, [r3, #12]
20003a64:	3301      	adds	r3, #1
20003a66:	4a3b      	ldr	r2, [pc, #236]	; (20003b54 <HAL_FLASH_IRQHandler+0x168>)
20003a68:	60d3      	str	r3, [r2, #12]
20003a6a:	4b3a      	ldr	r3, [pc, #232]	; (20003b54 <HAL_FLASH_IRQHandler+0x168>)
20003a6c:	68db      	ldr	r3, [r3, #12]
20003a6e:	607b      	str	r3, [r7, #4]
20003a70:	4b38      	ldr	r3, [pc, #224]	; (20003b54 <HAL_FLASH_IRQHandler+0x168>)
20003a72:	7a1b      	ldrb	r3, [r3, #8]
20003a74:	b2db      	uxtb	r3, r3
20003a76:	6878      	ldr	r0, [r7, #4]
20003a78:	4619      	mov	r1, r3
20003a7a:	f7fc fe75 	bl	20000768 <FLASH_Erase_Sector>
20003a7e:	e025      	b.n	20003acc <HAL_FLASH_IRQHandler+0xe0>
20003a80:	f04f 33ff 	mov.w	r3, #4294967295
20003a84:	607b      	str	r3, [r7, #4]
20003a86:	4a33      	ldr	r2, [pc, #204]	; (20003b54 <HAL_FLASH_IRQHandler+0x168>)
20003a88:	687b      	ldr	r3, [r7, #4]
20003a8a:	60d3      	str	r3, [r2, #12]
20003a8c:	4b31      	ldr	r3, [pc, #196]	; (20003b54 <HAL_FLASH_IRQHandler+0x168>)
20003a8e:	2200      	movs	r2, #0
20003a90:	701a      	strb	r2, [r3, #0]
20003a92:	6878      	ldr	r0, [r7, #4]
20003a94:	f000 f860 	bl	20003b58 <HAL_FLASH_EndOfOperationCallback>
20003a98:	4b2d      	ldr	r3, [pc, #180]	; (20003b50 <HAL_FLASH_IRQHandler+0x164>)
20003a9a:	2201      	movs	r2, #1
20003a9c:	60da      	str	r2, [r3, #12]
20003a9e:	e015      	b.n	20003acc <HAL_FLASH_IRQHandler+0xe0>
20003aa0:	4b2c      	ldr	r3, [pc, #176]	; (20003b54 <HAL_FLASH_IRQHandler+0x168>)
20003aa2:	781b      	ldrb	r3, [r3, #0]
20003aa4:	b2db      	uxtb	r3, r3
20003aa6:	2b02      	cmp	r3, #2
20003aa8:	d105      	bne.n	20003ab6 <HAL_FLASH_IRQHandler+0xca>
20003aaa:	4b2a      	ldr	r3, [pc, #168]	; (20003b54 <HAL_FLASH_IRQHandler+0x168>)
20003aac:	691b      	ldr	r3, [r3, #16]
20003aae:	4618      	mov	r0, r3
20003ab0:	f000 f852 	bl	20003b58 <HAL_FLASH_EndOfOperationCallback>
20003ab4:	e004      	b.n	20003ac0 <HAL_FLASH_IRQHandler+0xd4>
20003ab6:	4b27      	ldr	r3, [pc, #156]	; (20003b54 <HAL_FLASH_IRQHandler+0x168>)
20003ab8:	695b      	ldr	r3, [r3, #20]
20003aba:	4618      	mov	r0, r3
20003abc:	f000 f84c 	bl	20003b58 <HAL_FLASH_EndOfOperationCallback>
20003ac0:	4b24      	ldr	r3, [pc, #144]	; (20003b54 <HAL_FLASH_IRQHandler+0x168>)
20003ac2:	2200      	movs	r2, #0
20003ac4:	701a      	strb	r2, [r3, #0]
20003ac6:	4b22      	ldr	r3, [pc, #136]	; (20003b50 <HAL_FLASH_IRQHandler+0x164>)
20003ac8:	2201      	movs	r2, #1
20003aca:	60da      	str	r2, [r3, #12]
20003acc:	4b20      	ldr	r3, [pc, #128]	; (20003b50 <HAL_FLASH_IRQHandler+0x164>)
20003ace:	68db      	ldr	r3, [r3, #12]
20003ad0:	f403 73f9 	and.w	r3, r3, #498	; 0x1f2
20003ad4:	2b00      	cmp	r3, #0
20003ad6:	d024      	beq.n	20003b22 <HAL_FLASH_IRQHandler+0x136>
20003ad8:	4b1e      	ldr	r3, [pc, #120]	; (20003b54 <HAL_FLASH_IRQHandler+0x168>)
20003ada:	781b      	ldrb	r3, [r3, #0]
20003adc:	b2db      	uxtb	r3, r3
20003ade:	2b01      	cmp	r3, #1
20003ae0:	d107      	bne.n	20003af2 <HAL_FLASH_IRQHandler+0x106>
20003ae2:	4b1c      	ldr	r3, [pc, #112]	; (20003b54 <HAL_FLASH_IRQHandler+0x168>)
20003ae4:	68db      	ldr	r3, [r3, #12]
20003ae6:	607b      	str	r3, [r7, #4]
20003ae8:	4b1a      	ldr	r3, [pc, #104]	; (20003b54 <HAL_FLASH_IRQHandler+0x168>)
20003aea:	f04f 32ff 	mov.w	r2, #4294967295
20003aee:	60da      	str	r2, [r3, #12]
20003af0:	e00b      	b.n	20003b0a <HAL_FLASH_IRQHandler+0x11e>
20003af2:	4b18      	ldr	r3, [pc, #96]	; (20003b54 <HAL_FLASH_IRQHandler+0x168>)
20003af4:	781b      	ldrb	r3, [r3, #0]
20003af6:	b2db      	uxtb	r3, r3
20003af8:	2b02      	cmp	r3, #2
20003afa:	d103      	bne.n	20003b04 <HAL_FLASH_IRQHandler+0x118>
20003afc:	4b15      	ldr	r3, [pc, #84]	; (20003b54 <HAL_FLASH_IRQHandler+0x168>)
20003afe:	691b      	ldr	r3, [r3, #16]
20003b00:	607b      	str	r3, [r7, #4]
20003b02:	e002      	b.n	20003b0a <HAL_FLASH_IRQHandler+0x11e>
20003b04:	4b13      	ldr	r3, [pc, #76]	; (20003b54 <HAL_FLASH_IRQHandler+0x168>)
20003b06:	695b      	ldr	r3, [r3, #20]
20003b08:	607b      	str	r3, [r7, #4]
20003b0a:	f000 f96f 	bl	20003dec <FLASH_SetErrorCode>
20003b0e:	6878      	ldr	r0, [r7, #4]
20003b10:	f000 f82c 	bl	20003b6c <HAL_FLASH_OperationErrorCallback>
20003b14:	4b0e      	ldr	r3, [pc, #56]	; (20003b50 <HAL_FLASH_IRQHandler+0x164>)
20003b16:	f44f 72f9 	mov.w	r2, #498	; 0x1f2
20003b1a:	60da      	str	r2, [r3, #12]
20003b1c:	4b0d      	ldr	r3, [pc, #52]	; (20003b54 <HAL_FLASH_IRQHandler+0x168>)
20003b1e:	2200      	movs	r2, #0
20003b20:	701a      	strb	r2, [r3, #0]
20003b22:	4b0c      	ldr	r3, [pc, #48]	; (20003b54 <HAL_FLASH_IRQHandler+0x168>)
20003b24:	781b      	ldrb	r3, [r3, #0]
20003b26:	b2db      	uxtb	r3, r3
20003b28:	2b00      	cmp	r3, #0
20003b2a:	d10e      	bne.n	20003b4a <HAL_FLASH_IRQHandler+0x15e>
20003b2c:	4a08      	ldr	r2, [pc, #32]	; (20003b50 <HAL_FLASH_IRQHandler+0x164>)
20003b2e:	4b08      	ldr	r3, [pc, #32]	; (20003b50 <HAL_FLASH_IRQHandler+0x164>)
20003b30:	691b      	ldr	r3, [r3, #16]
20003b32:	f023 7380 	bic.w	r3, r3, #16777216	; 0x1000000
20003b36:	6113      	str	r3, [r2, #16]
20003b38:	4a05      	ldr	r2, [pc, #20]	; (20003b50 <HAL_FLASH_IRQHandler+0x164>)
20003b3a:	4b05      	ldr	r3, [pc, #20]	; (20003b50 <HAL_FLASH_IRQHandler+0x164>)
20003b3c:	691b      	ldr	r3, [r3, #16]
20003b3e:	f023 7300 	bic.w	r3, r3, #33554432	; 0x2000000
20003b42:	6113      	str	r3, [r2, #16]
20003b44:	4b03      	ldr	r3, [pc, #12]	; (20003b54 <HAL_FLASH_IRQHandler+0x168>)
20003b46:	2200      	movs	r2, #0
20003b48:	761a      	strb	r2, [r3, #24]
20003b4a:	3708      	adds	r7, #8
20003b4c:	46bd      	mov	sp, r7
20003b4e:	bd80      	pop	{r7, pc}
20003b50:	40023c00 	.word	0x40023c00
20003b54:	2000448c 	.word	0x2000448c

20003b58 <HAL_FLASH_EndOfOperationCallback>:
20003b58:	b480      	push	{r7}
20003b5a:	b083      	sub	sp, #12
20003b5c:	af00      	add	r7, sp, #0
20003b5e:	6078      	str	r0, [r7, #4]
20003b60:	370c      	adds	r7, #12
20003b62:	46bd      	mov	sp, r7
20003b64:	f85d 7b04 	ldr.w	r7, [sp], #4
20003b68:	4770      	bx	lr
20003b6a:	bf00      	nop

20003b6c <HAL_FLASH_OperationErrorCallback>:
20003b6c:	b480      	push	{r7}
20003b6e:	b083      	sub	sp, #12
20003b70:	af00      	add	r7, sp, #0
20003b72:	6078      	str	r0, [r7, #4]
20003b74:	370c      	adds	r7, #12
20003b76:	46bd      	mov	sp, r7
20003b78:	f85d 7b04 	ldr.w	r7, [sp], #4
20003b7c:	4770      	bx	lr
20003b7e:	bf00      	nop

20003b80 <HAL_FLASH_Unlock>:
20003b80:	b480      	push	{r7}
20003b82:	af00      	add	r7, sp, #0
20003b84:	4b08      	ldr	r3, [pc, #32]	; (20003ba8 <HAL_FLASH_Unlock+0x28>)
20003b86:	691b      	ldr	r3, [r3, #16]
20003b88:	2b00      	cmp	r3, #0
20003b8a:	da07      	bge.n	20003b9c <HAL_FLASH_Unlock+0x1c>
20003b8c:	4b06      	ldr	r3, [pc, #24]	; (20003ba8 <HAL_FLASH_Unlock+0x28>)
20003b8e:	4a07      	ldr	r2, [pc, #28]	; (20003bac <HAL_FLASH_Unlock+0x2c>)
20003b90:	605a      	str	r2, [r3, #4]
20003b92:	4b05      	ldr	r3, [pc, #20]	; (20003ba8 <HAL_FLASH_Unlock+0x28>)
20003b94:	4a06      	ldr	r2, [pc, #24]	; (20003bb0 <HAL_FLASH_Unlock+0x30>)
20003b96:	605a      	str	r2, [r3, #4]
20003b98:	2300      	movs	r3, #0
20003b9a:	e000      	b.n	20003b9e <HAL_FLASH_Unlock+0x1e>
20003b9c:	2301      	movs	r3, #1
20003b9e:	4618      	mov	r0, r3
20003ba0:	46bd      	mov	sp, r7
20003ba2:	f85d 7b04 	ldr.w	r7, [sp], #4
20003ba6:	4770      	bx	lr
20003ba8:	40023c00 	.word	0x40023c00
20003bac:	45670123 	.word	0x45670123
20003bb0:	cdef89ab 	.word	0xcdef89ab

20003bb4 <HAL_FLASH_Lock>:
20003bb4:	b480      	push	{r7}
20003bb6:	af00      	add	r7, sp, #0
20003bb8:	4a05      	ldr	r2, [pc, #20]	; (20003bd0 <HAL_FLASH_Lock+0x1c>)
20003bba:	4b05      	ldr	r3, [pc, #20]	; (20003bd0 <HAL_FLASH_Lock+0x1c>)
20003bbc:	691b      	ldr	r3, [r3, #16]
20003bbe:	f043 4300 	orr.w	r3, r3, #2147483648	; 0x80000000
20003bc2:	6113      	str	r3, [r2, #16]
20003bc4:	2300      	movs	r3, #0
20003bc6:	4618      	mov	r0, r3
20003bc8:	46bd      	mov	sp, r7
20003bca:	f85d 7b04 	ldr.w	r7, [sp], #4
20003bce:	4770      	bx	lr
20003bd0:	40023c00 	.word	0x40023c00

20003bd4 <HAL_FLASH_OB_Unlock>:
20003bd4:	b480      	push	{r7}
20003bd6:	af00      	add	r7, sp, #0
20003bd8:	4b09      	ldr	r3, [pc, #36]	; (20003c00 <HAL_FLASH_OB_Unlock+0x2c>)
20003bda:	695b      	ldr	r3, [r3, #20]
20003bdc:	f003 0301 	and.w	r3, r3, #1
20003be0:	2b00      	cmp	r3, #0
20003be2:	d007      	beq.n	20003bf4 <HAL_FLASH_OB_Unlock+0x20>
20003be4:	4b06      	ldr	r3, [pc, #24]	; (20003c00 <HAL_FLASH_OB_Unlock+0x2c>)
20003be6:	4a07      	ldr	r2, [pc, #28]	; (20003c04 <HAL_FLASH_OB_Unlock+0x30>)
20003be8:	609a      	str	r2, [r3, #8]
20003bea:	4b05      	ldr	r3, [pc, #20]	; (20003c00 <HAL_FLASH_OB_Unlock+0x2c>)
20003bec:	4a06      	ldr	r2, [pc, #24]	; (20003c08 <HAL_FLASH_OB_Unlock+0x34>)
20003bee:	609a      	str	r2, [r3, #8]
20003bf0:	2300      	movs	r3, #0
20003bf2:	e000      	b.n	20003bf6 <HAL_FLASH_OB_Unlock+0x22>
20003bf4:	2301      	movs	r3, #1
20003bf6:	4618      	mov	r0, r3
20003bf8:	46bd      	mov	sp, r7
20003bfa:	f85d 7b04 	ldr.w	r7, [sp], #4
20003bfe:	4770      	bx	lr
20003c00:	40023c00 	.word	0x40023c00
20003c04:	08192a3b 	.word	0x08192a3b
20003c08:	4c5d6e7f 	.word	0x4c5d6e7f

20003c0c <HAL_FLASH_OB_Lock>:
20003c0c:	b480      	push	{r7}
20003c0e:	af00      	add	r7, sp, #0
20003c10:	4a05      	ldr	r2, [pc, #20]	; (20003c28 <HAL_FLASH_OB_Lock+0x1c>)
20003c12:	4b05      	ldr	r3, [pc, #20]	; (20003c28 <HAL_FLASH_OB_Lock+0x1c>)
20003c14:	695b      	ldr	r3, [r3, #20]
20003c16:	f043 0301 	orr.w	r3, r3, #1
20003c1a:	6153      	str	r3, [r2, #20]
20003c1c:	2300      	movs	r3, #0
20003c1e:	4618      	mov	r0, r3
20003c20:	46bd      	mov	sp, r7
20003c22:	f85d 7b04 	ldr.w	r7, [sp], #4
20003c26:	4770      	bx	lr
20003c28:	40023c00 	.word	0x40023c00

20003c2c <HAL_FLASH_OB_Launch>:
20003c2c:	b580      	push	{r7, lr}
20003c2e:	af00      	add	r7, sp, #0
20003c30:	4a07      	ldr	r2, [pc, #28]	; (20003c50 <HAL_FLASH_OB_Launch+0x24>)
20003c32:	4b07      	ldr	r3, [pc, #28]	; (20003c50 <HAL_FLASH_OB_Launch+0x24>)
20003c34:	781b      	ldrb	r3, [r3, #0]
20003c36:	b2db      	uxtb	r3, r3
20003c38:	f043 0302 	orr.w	r3, r3, #2
20003c3c:	b2db      	uxtb	r3, r3
20003c3e:	7013      	strb	r3, [r2, #0]
20003c40:	f24c 3050 	movw	r0, #50000	; 0xc350
20003c44:	f000 f812 	bl	20003c6c <FLASH_WaitForLastOperation>
20003c48:	4603      	mov	r3, r0
20003c4a:	4618      	mov	r0, r3
20003c4c:	bd80      	pop	{r7, pc}
20003c4e:	bf00      	nop
20003c50:	40023c14 	.word	0x40023c14

20003c54 <HAL_FLASH_GetError>:
20003c54:	b480      	push	{r7}
20003c56:	af00      	add	r7, sp, #0
20003c58:	4b03      	ldr	r3, [pc, #12]	; (20003c68 <HAL_FLASH_GetError+0x14>)
20003c5a:	69db      	ldr	r3, [r3, #28]
20003c5c:	4618      	mov	r0, r3
20003c5e:	46bd      	mov	sp, r7
20003c60:	f85d 7b04 	ldr.w	r7, [sp], #4
20003c64:	4770      	bx	lr
20003c66:	bf00      	nop
20003c68:	2000448c 	.word	0x2000448c

20003c6c <FLASH_WaitForLastOperation>:
20003c6c:	b580      	push	{r7, lr}
20003c6e:	b084      	sub	sp, #16
20003c70:	af00      	add	r7, sp, #0
20003c72:	6078      	str	r0, [r7, #4]
20003c74:	2300      	movs	r3, #0
20003c76:	60fb      	str	r3, [r7, #12]
20003c78:	4b16      	ldr	r3, [pc, #88]	; (20003cd4 <FLASH_WaitForLastOperation+0x68>)
20003c7a:	2200      	movs	r2, #0
20003c7c:	61da      	str	r2, [r3, #28]
20003c7e:	f7ff f9b1 	bl	20002fe4 <HAL_GetTick>
20003c82:	60f8      	str	r0, [r7, #12]
20003c84:	e010      	b.n	20003ca8 <FLASH_WaitForLastOperation+0x3c>
20003c86:	687b      	ldr	r3, [r7, #4]
20003c88:	f1b3 3fff 	cmp.w	r3, #4294967295
20003c8c:	d00c      	beq.n	20003ca8 <FLASH_WaitForLastOperation+0x3c>
20003c8e:	687b      	ldr	r3, [r7, #4]
20003c90:	2b00      	cmp	r3, #0
20003c92:	d007      	beq.n	20003ca4 <FLASH_WaitForLastOperation+0x38>
20003c94:	f7ff f9a6 	bl	20002fe4 <HAL_GetTick>
20003c98:	4602      	mov	r2, r0
20003c9a:	68fb      	ldr	r3, [r7, #12]
20003c9c:	1ad2      	subs	r2, r2, r3
20003c9e:	687b      	ldr	r3, [r7, #4]
20003ca0:	429a      	cmp	r2, r3
20003ca2:	d901      	bls.n	20003ca8 <FLASH_WaitForLastOperation+0x3c>
20003ca4:	2303      	movs	r3, #3
20003ca6:	e010      	b.n	20003cca <FLASH_WaitForLastOperation+0x5e>
20003ca8:	4b0b      	ldr	r3, [pc, #44]	; (20003cd8 <FLASH_WaitForLastOperation+0x6c>)
20003caa:	68db      	ldr	r3, [r3, #12]
20003cac:	f403 3380 	and.w	r3, r3, #65536	; 0x10000
20003cb0:	2b00      	cmp	r3, #0
20003cb2:	d1e8      	bne.n	20003c86 <FLASH_WaitForLastOperation+0x1a>
20003cb4:	4b08      	ldr	r3, [pc, #32]	; (20003cd8 <FLASH_WaitForLastOperation+0x6c>)
20003cb6:	68db      	ldr	r3, [r3, #12]
20003cb8:	f403 73f9 	and.w	r3, r3, #498	; 0x1f2
20003cbc:	2b00      	cmp	r3, #0
20003cbe:	d003      	beq.n	20003cc8 <FLASH_WaitForLastOperation+0x5c>
20003cc0:	f000 f894 	bl	20003dec <FLASH_SetErrorCode>
20003cc4:	2301      	movs	r3, #1
20003cc6:	e000      	b.n	20003cca <FLASH_WaitForLastOperation+0x5e>
20003cc8:	2300      	movs	r3, #0
20003cca:	4618      	mov	r0, r3
20003ccc:	3710      	adds	r7, #16
20003cce:	46bd      	mov	sp, r7
20003cd0:	bd80      	pop	{r7, pc}
20003cd2:	bf00      	nop
20003cd4:	2000448c 	.word	0x2000448c
20003cd8:	40023c00 	.word	0x40023c00

20003cdc <FLASH_Program_DoubleWord>:
20003cdc:	b480      	push	{r7}
20003cde:	b085      	sub	sp, #20
20003ce0:	af00      	add	r7, sp, #0
20003ce2:	60f8      	str	r0, [r7, #12]
20003ce4:	e9c7 2300 	strd	r2, r3, [r7]
20003ce8:	4a0d      	ldr	r2, [pc, #52]	; (20003d20 <FLASH_Program_DoubleWord+0x44>)
20003cea:	4b0d      	ldr	r3, [pc, #52]	; (20003d20 <FLASH_Program_DoubleWord+0x44>)
20003cec:	691b      	ldr	r3, [r3, #16]
20003cee:	f423 7340 	bic.w	r3, r3, #768	; 0x300
20003cf2:	6113      	str	r3, [r2, #16]
20003cf4:	4a0a      	ldr	r2, [pc, #40]	; (20003d20 <FLASH_Program_DoubleWord+0x44>)
20003cf6:	4b0a      	ldr	r3, [pc, #40]	; (20003d20 <FLASH_Program_DoubleWord+0x44>)
20003cf8:	691b      	ldr	r3, [r3, #16]
20003cfa:	f443 7340 	orr.w	r3, r3, #768	; 0x300
20003cfe:	6113      	str	r3, [r2, #16]
20003d00:	4a07      	ldr	r2, [pc, #28]	; (20003d20 <FLASH_Program_DoubleWord+0x44>)
20003d02:	4b07      	ldr	r3, [pc, #28]	; (20003d20 <FLASH_Program_DoubleWord+0x44>)
20003d04:	691b      	ldr	r3, [r3, #16]
20003d06:	f043 0301 	orr.w	r3, r3, #1
20003d0a:	6113      	str	r3, [r2, #16]
20003d0c:	68f9      	ldr	r1, [r7, #12]
20003d0e:	e9d7 2300 	ldrd	r2, r3, [r7]
20003d12:	e9c1 2300 	strd	r2, r3, [r1]
20003d16:	3714      	adds	r7, #20
20003d18:	46bd      	mov	sp, r7
20003d1a:	f85d 7b04 	ldr.w	r7, [sp], #4
20003d1e:	4770      	bx	lr
20003d20:	40023c00 	.word	0x40023c00

20003d24 <FLASH_Program_Word>:
20003d24:	b480      	push	{r7}
20003d26:	b083      	sub	sp, #12
20003d28:	af00      	add	r7, sp, #0
20003d2a:	6078      	str	r0, [r7, #4]
20003d2c:	6039      	str	r1, [r7, #0]
20003d2e:	4a0d      	ldr	r2, [pc, #52]	; (20003d64 <FLASH_Program_Word+0x40>)
20003d30:	4b0c      	ldr	r3, [pc, #48]	; (20003d64 <FLASH_Program_Word+0x40>)
20003d32:	691b      	ldr	r3, [r3, #16]
20003d34:	f423 7340 	bic.w	r3, r3, #768	; 0x300
20003d38:	6113      	str	r3, [r2, #16]
20003d3a:	4a0a      	ldr	r2, [pc, #40]	; (20003d64 <FLASH_Program_Word+0x40>)
20003d3c:	4b09      	ldr	r3, [pc, #36]	; (20003d64 <FLASH_Program_Word+0x40>)
20003d3e:	691b      	ldr	r3, [r3, #16]
20003d40:	f443 7300 	orr.w	r3, r3, #512	; 0x200
20003d44:	6113      	str	r3, [r2, #16]
20003d46:	4a07      	ldr	r2, [pc, #28]	; (20003d64 <FLASH_Program_Word+0x40>)
20003d48:	4b06      	ldr	r3, [pc, #24]	; (20003d64 <FLASH_Program_Word+0x40>)
20003d4a:	691b      	ldr	r3, [r3, #16]
20003d4c:	f043 0301 	orr.w	r3, r3, #1
20003d50:	6113      	str	r3, [r2, #16]
20003d52:	687b      	ldr	r3, [r7, #4]
20003d54:	683a      	ldr	r2, [r7, #0]
20003d56:	601a      	str	r2, [r3, #0]
20003d58:	370c      	adds	r7, #12
20003d5a:	46bd      	mov	sp, r7
20003d5c:	f85d 7b04 	ldr.w	r7, [sp], #4
20003d60:	4770      	bx	lr
20003d62:	bf00      	nop
20003d64:	40023c00 	.word	0x40023c00

20003d68 <FLASH_Program_HalfWord>:
20003d68:	b480      	push	{r7}
20003d6a:	b083      	sub	sp, #12
20003d6c:	af00      	add	r7, sp, #0
20003d6e:	6078      	str	r0, [r7, #4]
20003d70:	460b      	mov	r3, r1
20003d72:	807b      	strh	r3, [r7, #2]
20003d74:	4a0c      	ldr	r2, [pc, #48]	; (20003da8 <FLASH_Program_HalfWord+0x40>)
20003d76:	4b0c      	ldr	r3, [pc, #48]	; (20003da8 <FLASH_Program_HalfWord+0x40>)
20003d78:	691b      	ldr	r3, [r3, #16]
20003d7a:	f423 7340 	bic.w	r3, r3, #768	; 0x300
20003d7e:	6113      	str	r3, [r2, #16]
20003d80:	4a09      	ldr	r2, [pc, #36]	; (20003da8 <FLASH_Program_HalfWord+0x40>)
20003d82:	4b09      	ldr	r3, [pc, #36]	; (20003da8 <FLASH_Program_HalfWord+0x40>)
20003d84:	691b      	ldr	r3, [r3, #16]
20003d86:	f443 7380 	orr.w	r3, r3, #256	; 0x100
20003d8a:	6113      	str	r3, [r2, #16]
20003d8c:	4a06      	ldr	r2, [pc, #24]	; (20003da8 <FLASH_Program_HalfWord+0x40>)
20003d8e:	4b06      	ldr	r3, [pc, #24]	; (20003da8 <FLASH_Program_HalfWord+0x40>)
20003d90:	691b      	ldr	r3, [r3, #16]
20003d92:	f043 0301 	orr.w	r3, r3, #1
20003d96:	6113      	str	r3, [r2, #16]
20003d98:	687b      	ldr	r3, [r7, #4]
20003d9a:	887a      	ldrh	r2, [r7, #2]
20003d9c:	801a      	strh	r2, [r3, #0]
20003d9e:	370c      	adds	r7, #12
20003da0:	46bd      	mov	sp, r7
20003da2:	f85d 7b04 	ldr.w	r7, [sp], #4
20003da6:	4770      	bx	lr
20003da8:	40023c00 	.word	0x40023c00

20003dac <FLASH_Program_Byte>:
20003dac:	b480      	push	{r7}
20003dae:	b083      	sub	sp, #12
20003db0:	af00      	add	r7, sp, #0
20003db2:	6078      	str	r0, [r7, #4]
20003db4:	460b      	mov	r3, r1
20003db6:	70fb      	strb	r3, [r7, #3]
20003db8:	4a0b      	ldr	r2, [pc, #44]	; (20003de8 <FLASH_Program_Byte+0x3c>)
20003dba:	4b0b      	ldr	r3, [pc, #44]	; (20003de8 <FLASH_Program_Byte+0x3c>)
20003dbc:	691b      	ldr	r3, [r3, #16]
20003dbe:	f423 7340 	bic.w	r3, r3, #768	; 0x300
20003dc2:	6113      	str	r3, [r2, #16]
20003dc4:	4a08      	ldr	r2, [pc, #32]	; (20003de8 <FLASH_Program_Byte+0x3c>)
20003dc6:	4b08      	ldr	r3, [pc, #32]	; (20003de8 <FLASH_Program_Byte+0x3c>)
20003dc8:	691b      	ldr	r3, [r3, #16]
20003dca:	6113      	str	r3, [r2, #16]
20003dcc:	4a06      	ldr	r2, [pc, #24]	; (20003de8 <FLASH_Program_Byte+0x3c>)
20003dce:	4b06      	ldr	r3, [pc, #24]	; (20003de8 <FLASH_Program_Byte+0x3c>)
20003dd0:	691b      	ldr	r3, [r3, #16]
20003dd2:	f043 0301 	orr.w	r3, r3, #1
20003dd6:	6113      	str	r3, [r2, #16]
20003dd8:	687b      	ldr	r3, [r7, #4]
20003dda:	78fa      	ldrb	r2, [r7, #3]
20003ddc:	701a      	strb	r2, [r3, #0]
20003dde:	370c      	adds	r7, #12
20003de0:	46bd      	mov	sp, r7
20003de2:	f85d 7b04 	ldr.w	r7, [sp], #4
20003de6:	4770      	bx	lr
20003de8:	40023c00 	.word	0x40023c00

20003dec <FLASH_SetErrorCode>:
20003dec:	b480      	push	{r7}
20003dee:	af00      	add	r7, sp, #0
20003df0:	4b25      	ldr	r3, [pc, #148]	; (20003e88 <FLASH_SetErrorCode+0x9c>)
20003df2:	68db      	ldr	r3, [r3, #12]
20003df4:	f003 0310 	and.w	r3, r3, #16
20003df8:	2b00      	cmp	r3, #0
20003dfa:	d005      	beq.n	20003e08 <FLASH_SetErrorCode+0x1c>
20003dfc:	4b23      	ldr	r3, [pc, #140]	; (20003e8c <FLASH_SetErrorCode+0xa0>)
20003dfe:	69db      	ldr	r3, [r3, #28]
20003e00:	f043 0310 	orr.w	r3, r3, #16
20003e04:	4a21      	ldr	r2, [pc, #132]	; (20003e8c <FLASH_SetErrorCode+0xa0>)
20003e06:	61d3      	str	r3, [r2, #28]
20003e08:	4b1f      	ldr	r3, [pc, #124]	; (20003e88 <FLASH_SetErrorCode+0x9c>)
20003e0a:	68db      	ldr	r3, [r3, #12]
20003e0c:	f003 0320 	and.w	r3, r3, #32
20003e10:	2b00      	cmp	r3, #0
20003e12:	d005      	beq.n	20003e20 <FLASH_SetErrorCode+0x34>
20003e14:	4b1d      	ldr	r3, [pc, #116]	; (20003e8c <FLASH_SetErrorCode+0xa0>)
20003e16:	69db      	ldr	r3, [r3, #28]
20003e18:	f043 0308 	orr.w	r3, r3, #8
20003e1c:	4a1b      	ldr	r2, [pc, #108]	; (20003e8c <FLASH_SetErrorCode+0xa0>)
20003e1e:	61d3      	str	r3, [r2, #28]
20003e20:	4b19      	ldr	r3, [pc, #100]	; (20003e88 <FLASH_SetErrorCode+0x9c>)
20003e22:	68db      	ldr	r3, [r3, #12]
20003e24:	f003 0340 	and.w	r3, r3, #64	; 0x40
20003e28:	2b00      	cmp	r3, #0
20003e2a:	d005      	beq.n	20003e38 <FLASH_SetErrorCode+0x4c>
20003e2c:	4b17      	ldr	r3, [pc, #92]	; (20003e8c <FLASH_SetErrorCode+0xa0>)
20003e2e:	69db      	ldr	r3, [r3, #28]
20003e30:	f043 0304 	orr.w	r3, r3, #4
20003e34:	4a15      	ldr	r2, [pc, #84]	; (20003e8c <FLASH_SetErrorCode+0xa0>)
20003e36:	61d3      	str	r3, [r2, #28]
20003e38:	4b13      	ldr	r3, [pc, #76]	; (20003e88 <FLASH_SetErrorCode+0x9c>)
20003e3a:	68db      	ldr	r3, [r3, #12]
20003e3c:	f003 0380 	and.w	r3, r3, #128	; 0x80
20003e40:	2b00      	cmp	r3, #0
20003e42:	d005      	beq.n	20003e50 <FLASH_SetErrorCode+0x64>
20003e44:	4b11      	ldr	r3, [pc, #68]	; (20003e8c <FLASH_SetErrorCode+0xa0>)
20003e46:	69db      	ldr	r3, [r3, #28]
20003e48:	f043 0302 	orr.w	r3, r3, #2
20003e4c:	4a0f      	ldr	r2, [pc, #60]	; (20003e8c <FLASH_SetErrorCode+0xa0>)
20003e4e:	61d3      	str	r3, [r2, #28]
20003e50:	4b0d      	ldr	r3, [pc, #52]	; (20003e88 <FLASH_SetErrorCode+0x9c>)
20003e52:	68db      	ldr	r3, [r3, #12]
20003e54:	f403 7380 	and.w	r3, r3, #256	; 0x100
20003e58:	2b00      	cmp	r3, #0
20003e5a:	d005      	beq.n	20003e68 <FLASH_SetErrorCode+0x7c>
20003e5c:	4b0b      	ldr	r3, [pc, #44]	; (20003e8c <FLASH_SetErrorCode+0xa0>)
20003e5e:	69db      	ldr	r3, [r3, #28]
20003e60:	f043 0301 	orr.w	r3, r3, #1
20003e64:	4a09      	ldr	r2, [pc, #36]	; (20003e8c <FLASH_SetErrorCode+0xa0>)
20003e66:	61d3      	str	r3, [r2, #28]
20003e68:	4b07      	ldr	r3, [pc, #28]	; (20003e88 <FLASH_SetErrorCode+0x9c>)
20003e6a:	68db      	ldr	r3, [r3, #12]
20003e6c:	f003 0302 	and.w	r3, r3, #2
20003e70:	2b00      	cmp	r3, #0
20003e72:	d005      	beq.n	20003e80 <FLASH_SetErrorCode+0x94>
20003e74:	4b05      	ldr	r3, [pc, #20]	; (20003e8c <FLASH_SetErrorCode+0xa0>)
20003e76:	69db      	ldr	r3, [r3, #28]
20003e78:	f043 0320 	orr.w	r3, r3, #32
20003e7c:	4a03      	ldr	r2, [pc, #12]	; (20003e8c <FLASH_SetErrorCode+0xa0>)
20003e7e:	61d3      	str	r3, [r2, #28]
20003e80:	46bd      	mov	sp, r7
20003e82:	f85d 7b04 	ldr.w	r7, [sp], #4
20003e86:	4770      	bx	lr
20003e88:	40023c00 	.word	0x40023c00
20003e8c:	2000448c 	.word	0x2000448c

20003e90 <register_fini>:
20003e90:	4b02      	ldr	r3, [pc, #8]	; (20003e9c <register_fini+0xc>)
20003e92:	b113      	cbz	r3, 20003e9a <register_fini+0xa>
20003e94:	4802      	ldr	r0, [pc, #8]	; (20003ea0 <register_fini+0x10>)
20003e96:	f000 b805 	b.w	20003ea4 <atexit>
20003e9a:	4770      	bx	lr
20003e9c:	00000000 	.word	0x00000000
20003ea0:	20003eb1 	.word	0x20003eb1

20003ea4 <atexit>:
20003ea4:	4601      	mov	r1, r0
20003ea6:	2000      	movs	r0, #0
20003ea8:	4602      	mov	r2, r0
20003eaa:	4603      	mov	r3, r0
20003eac:	f000 b816 	b.w	20003edc <__register_exitproc>

20003eb0 <__libc_fini_array>:
20003eb0:	b538      	push	{r3, r4, r5, lr}
20003eb2:	4b08      	ldr	r3, [pc, #32]	; (20003ed4 <__libc_fini_array+0x24>)
20003eb4:	4d08      	ldr	r5, [pc, #32]	; (20003ed8 <__libc_fini_array+0x28>)
20003eb6:	1aed      	subs	r5, r5, r3
20003eb8:	10ac      	asrs	r4, r5, #2
20003eba:	bf18      	it	ne
20003ebc:	18ed      	addne	r5, r5, r3
20003ebe:	d005      	beq.n	20003ecc <__libc_fini_array+0x1c>
20003ec0:	3c01      	subs	r4, #1
20003ec2:	f855 3d04 	ldr.w	r3, [r5, #-4]!
20003ec6:	4798      	blx	r3
20003ec8:	2c00      	cmp	r4, #0
20003eca:	d1f9      	bne.n	20003ec0 <__libc_fini_array+0x10>
20003ecc:	e8bd 4038 	ldmia.w	sp!, {r3, r4, r5, lr}
20003ed0:	f000 b884 	b.w	20003fdc <_fini>
20003ed4:	20004008 	.word	0x20004008
20003ed8:	2000400c 	.word	0x2000400c

20003edc <__register_exitproc>:
20003edc:	e92d 47f0 	stmdb	sp!, {r4, r5, r6, r7, r8, r9, sl, lr}
20003ee0:	4c25      	ldr	r4, [pc, #148]	; (20003f78 <__register_exitproc+0x9c>)
20003ee2:	6825      	ldr	r5, [r4, #0]
20003ee4:	f8d5 4148 	ldr.w	r4, [r5, #328]	; 0x148
20003ee8:	4606      	mov	r6, r0
20003eea:	4688      	mov	r8, r1
20003eec:	4692      	mov	sl, r2
20003eee:	4699      	mov	r9, r3
20003ef0:	b3cc      	cbz	r4, 20003f66 <__register_exitproc+0x8a>
20003ef2:	6860      	ldr	r0, [r4, #4]
20003ef4:	281f      	cmp	r0, #31
20003ef6:	dc18      	bgt.n	20003f2a <__register_exitproc+0x4e>
20003ef8:	1c43      	adds	r3, r0, #1
20003efa:	b17e      	cbz	r6, 20003f1c <__register_exitproc+0x40>
20003efc:	eb04 0580 	add.w	r5, r4, r0, lsl #2
20003f00:	2101      	movs	r1, #1
20003f02:	f8c5 a088 	str.w	sl, [r5, #136]	; 0x88
20003f06:	f8d4 7188 	ldr.w	r7, [r4, #392]	; 0x188
20003f0a:	fa01 f200 	lsl.w	r2, r1, r0
20003f0e:	4317      	orrs	r7, r2
20003f10:	2e02      	cmp	r6, #2
20003f12:	f8c4 7188 	str.w	r7, [r4, #392]	; 0x188
20003f16:	f8c5 9108 	str.w	r9, [r5, #264]	; 0x108
20003f1a:	d01e      	beq.n	20003f5a <__register_exitproc+0x7e>
20003f1c:	3002      	adds	r0, #2
20003f1e:	6063      	str	r3, [r4, #4]
20003f20:	f844 8020 	str.w	r8, [r4, r0, lsl #2]
20003f24:	2000      	movs	r0, #0
20003f26:	e8bd 87f0 	ldmia.w	sp!, {r4, r5, r6, r7, r8, r9, sl, pc}
20003f2a:	4b14      	ldr	r3, [pc, #80]	; (20003f7c <__register_exitproc+0xa0>)
20003f2c:	b303      	cbz	r3, 20003f70 <__register_exitproc+0x94>
20003f2e:	f44f 70c8 	mov.w	r0, #400	; 0x190
20003f32:	f3af 8000 	nop.w
20003f36:	4604      	mov	r4, r0
20003f38:	b1d0      	cbz	r0, 20003f70 <__register_exitproc+0x94>
20003f3a:	f8d5 3148 	ldr.w	r3, [r5, #328]	; 0x148
20003f3e:	2700      	movs	r7, #0
20003f40:	e880 0088 	stmia.w	r0, {r3, r7}
20003f44:	f8c5 4148 	str.w	r4, [r5, #328]	; 0x148
20003f48:	4638      	mov	r0, r7
20003f4a:	2301      	movs	r3, #1
20003f4c:	f8c4 7188 	str.w	r7, [r4, #392]	; 0x188
20003f50:	f8c4 718c 	str.w	r7, [r4, #396]	; 0x18c
20003f54:	2e00      	cmp	r6, #0
20003f56:	d0e1      	beq.n	20003f1c <__register_exitproc+0x40>
20003f58:	e7d0      	b.n	20003efc <__register_exitproc+0x20>
20003f5a:	f8d4 118c 	ldr.w	r1, [r4, #396]	; 0x18c
20003f5e:	430a      	orrs	r2, r1
20003f60:	f8c4 218c 	str.w	r2, [r4, #396]	; 0x18c
20003f64:	e7da      	b.n	20003f1c <__register_exitproc+0x40>
20003f66:	f505 74a6 	add.w	r4, r5, #332	; 0x14c
20003f6a:	f8c5 4148 	str.w	r4, [r5, #328]	; 0x148
20003f6e:	e7c0      	b.n	20003ef2 <__register_exitproc+0x16>
20003f70:	f04f 30ff 	mov.w	r0, #4294967295
20003f74:	e8bd 87f0 	ldmia.w	sp!, {r4, r5, r6, r7, r8, r9, sl, pc}
20003f78:	20003ffc 	.word	0x20003ffc
20003f7c:	00000000 	.word	0x00000000

20003f80 <Reset_Handler>:
20003f80:	f8df d030 	ldr.w	sp, [pc, #48]	; 20003fb4 <LoopFillZerobss+0x10>
20003f84:	2100      	movs	r1, #0
20003f86:	e003      	b.n	20003f90 <LoopCopyDataInit>

20003f88 <CopyDataInit>:
20003f88:	4b0b      	ldr	r3, [pc, #44]	; (20003fb8 <LoopFillZerobss+0x14>)
20003f8a:	585b      	ldr	r3, [r3, r1]
20003f8c:	5043      	str	r3, [r0, r1]
20003f8e:	3104      	adds	r1, #4

20003f90 <LoopCopyDataInit>:
20003f90:	480a      	ldr	r0, [pc, #40]	; (20003fbc <LoopFillZerobss+0x18>)
20003f92:	4b0b      	ldr	r3, [pc, #44]	; (20003fc0 <LoopFillZerobss+0x1c>)
20003f94:	1842      	adds	r2, r0, r1
20003f96:	429a      	cmp	r2, r3
20003f98:	d3f6      	bcc.n	20003f88 <CopyDataInit>
20003f9a:	4a0a      	ldr	r2, [pc, #40]	; (20003fc4 <LoopFillZerobss+0x20>)
20003f9c:	e002      	b.n	20003fa4 <LoopFillZerobss>

20003f9e <FillZerobss>:
20003f9e:	2300      	movs	r3, #0
20003fa0:	f842 3b04 	str.w	r3, [r2], #4

20003fa4 <LoopFillZerobss>:
20003fa4:	4b08      	ldr	r3, [pc, #32]	; (20003fc8 <LoopFillZerobss+0x24>)
20003fa6:	429a      	cmp	r2, r3
20003fa8:	d3f9      	bcc.n	20003f9e <FillZerobss>
20003faa:	f7fe fadf 	bl	2000256c <SystemInit>
20003fae:	f7fe fb87 	bl	200026c0 <main>
20003fb2:	4770      	bx	lr
20003fb4:	20030000 	.word	0x20030000
20003fb8:	20004010 	.word	0x20004010
20003fbc:	20004010 	.word	0x20004010
20003fc0:	20004450 	.word	0x20004450
20003fc4:	20004450 	.word	0x20004450
20003fc8:	200044ac 	.word	0x200044ac

20003fcc <ADC_IRQHandler>:
20003fcc:	e7fe      	b.n	20003fcc <ADC_IRQHandler>
	...

20003fd0 <_init>:
20003fd0:	b5f8      	push	{r3, r4, r5, r6, r7, lr}
20003fd2:	bf00      	nop
20003fd4:	bcf8      	pop	{r3, r4, r5, r6, r7}
20003fd6:	bc08      	pop	{r3}
20003fd8:	469e      	mov	lr, r3
20003fda:	4770      	bx	lr

20003fdc <_fini>:
20003fdc:	b5f8      	push	{r3, r4, r5, r6, r7, lr}
20003fde:	bf00      	nop
20003fe0:	bcf8      	pop	{r3, r4, r5, r6, r7}
20003fe2:	bc08      	pop	{r3}
20003fe4:	469e      	mov	lr, r3
20003fe6:	4770      	bx	lr
